
led.elf:     file format elf32-littleriscv


Disassembly of section .vectors:

00000000 <_stack_start-0x40005c00>:
  // external interrupts are handled by the same callback
  // until compiler supports IRQ routines
  .org 0x00
  .rept 31
  nop
  .endr
   0:	00000013          	nop
   4:	00000013          	nop
   8:	00000013          	nop
   c:	00000013          	nop
  10:	00000013          	nop
  14:	00000013          	nop
  18:	00000013          	nop
  1c:	00000013          	nop
  20:	00000013          	nop
  24:	00000013          	nop
  28:	00000013          	nop
  2c:	00000013          	nop
  30:	00000013          	nop
  34:	00000013          	nop
  38:	00000013          	nop
  3c:	00000013          	nop
  40:	00000013          	nop
  44:	00000013          	nop
  48:	00000013          	nop
  4c:	00000013          	nop
  50:	00000013          	nop
  54:	00000013          	nop
  58:	00000013          	nop
  5c:	00000013          	nop
  60:	00000013          	nop
  64:	00000013          	nop
  68:	00000013          	nop
  6c:	00000013          	nop
  70:	00000013          	nop
  74:	00000013          	nop
  78:	00000013          	nop
  // graffou: ??????? program goes to trap directly ???? jal x0, default_exc_handler
  nop
  7c:	00000013          	nop
  // reset vector
  .org 0x80
  jal x0, reset_handler
  80:	0100006f          	j	90 <reset_handler>

  // illegal instruction exception
  .org 0x84
  jal x0, default_exc_handler
  84:	0080006f          	j	8c <_stext>

  // ecall handler
  .org 0x88
  jal x0, default_exc_handler
  88:	0040006f          	j	8c <_stext>

Disassembly of section .text:

0000008c <_stext>:
  jal x0, default_exc_handler
  8c:	0000006f          	j	8c <_stext>

00000090 <reset_handler>:
  mv  x1, x0
  90:	00000093          	li	ra,0
  mv  x2, x1
  94:	00008113          	mv	sp,ra
  mv  x3, x1
  98:	00008193          	mv	gp,ra
  mv  x4, x1
  9c:	00008213          	mv	tp,ra
  mv  x5, x1
  a0:	00008293          	mv	t0,ra
  mv  x6, x1
  a4:	00008313          	mv	t1,ra
  mv  x7, x1
  a8:	00008393          	mv	t2,ra
  mv  x8, x1
  ac:	00008413          	mv	s0,ra
  mv  x9, x1
  b0:	00008493          	mv	s1,ra
  mv x10, x1
  b4:	00008513          	mv	a0,ra
  mv x11, x1
  b8:	00008593          	mv	a1,ra
  mv x12, x1
  bc:	00008613          	mv	a2,ra
  mv x13, x1
  c0:	00008693          	mv	a3,ra
  mv x14, x1
  c4:	00008713          	mv	a4,ra
  mv x15, x1
  c8:	00008793          	mv	a5,ra
  mv x16, x1
  cc:	00008813          	mv	a6,ra
  mv x17, x1
  d0:	00008893          	mv	a7,ra
  mv x18, x1
  d4:	00008913          	mv	s2,ra
  mv x19, x1
  d8:	00008993          	mv	s3,ra
  mv x20, x1
  dc:	00008a13          	mv	s4,ra
  mv x21, x1
  e0:	00008a93          	mv	s5,ra
  mv x22, x1
  e4:	00008b13          	mv	s6,ra
  mv x23, x1
  e8:	00008b93          	mv	s7,ra
  mv x24, x1
  ec:	00008c13          	mv	s8,ra
  mv x25, x1
  f0:	00008c93          	mv	s9,ra
  mv x26, x1
  f4:	00008d13          	mv	s10,ra
  mv x27, x1
  f8:	00008d93          	mv	s11,ra
  mv x28, x1
  fc:	00008e13          	mv	t3,ra
  mv x29, x1
 100:	00008e93          	mv	t4,ra
  mv x30, x1
 104:	00008f13          	mv	t5,ra
  mv x31, x1
 108:	00008f93          	mv	t6,ra
  la   x2, _stack_start
 10c:	40006117          	auipc	sp,0x40006
 110:	af410113          	addi	sp,sp,-1292 # 40005c00 <_stack_start>

00000114 <_start>:
  la x26, _bss_start
 114:	40000d17          	auipc	s10,0x40000
 118:	f00d0d13          	addi	s10,s10,-256 # 40000014 <_bss_end>
  la x27, _bss_end
 11c:	40000d97          	auipc	s11,0x40000
 120:	ef8d8d93          	addi	s11,s11,-264 # 40000014 <_bss_end>
  bge x26, x27, zero_loop_end
 124:	01bd5863          	bge	s10,s11,134 <zero_loop_end>

00000128 <zero_loop>:
  sw x0, 0(x26)
 128:	000d2023          	sw	zero,0(s10)
  addi x26, x26, 4
 12c:	004d0d13          	addi	s10,s10,4
  ble x26, x27, zero_loop
 130:	ffaddce3          	bge	s11,s10,128 <zero_loop>

00000134 <zero_loop_end>:
  la x26, _sdata
 134:	40000d17          	auipc	s10,0x40000
 138:	eccd0d13          	addi	s10,s10,-308 # 40000000 <toto>
  la x27, _edata
 13c:	40000d97          	auipc	s11,0x40000
 140:	ed4d8d93          	addi	s11,s11,-300 # 40000010 <_edata>
  la x25, _sidata
 144:	3c800c93          	li	s9,968
  bge x26, x27, init_loop_end
 148:	01bd5c63          	bge	s10,s11,160 <init_loop_end>

0000014c <init_loop>:
  lw x1, 0(x25)
 14c:	000ca083          	lw	ra,0(s9)
  sw x1, 0(x26)
 150:	001d2023          	sw	ra,0(s10)
  addi x26, x26, 4  
 154:	004d0d13          	addi	s10,s10,4
  addi x25, x25, 4
 158:	004c8c93          	addi	s9,s9,4
  ble x26, x27, init_loop
 15c:	ffadd8e3          	bge	s11,s10,14c <init_loop>

00000160 <init_loop_end>:
  call    __libc_init_array
 160:	010000ef          	jal	ra,170 <__libc_init_array>

00000164 <main_entry>:
  addi x10, x0, 0
 164:	00000513          	li	a0,0
  addi x11, x0, 0
 168:	00000593          	li	a1,0
  jal x1, main
 16c:	0c4000ef          	jal	ra,230 <main>

00000170 <__libc_init_array>:
 170:	ff010113          	addi	sp,sp,-16
 174:	00812423          	sw	s0,8(sp)
 178:	01212023          	sw	s2,0(sp)
 17c:	3c800793          	li	a5,968
 180:	3c800913          	li	s2,968
 184:	40f90933          	sub	s2,s2,a5
 188:	00112623          	sw	ra,12(sp)
 18c:	00912223          	sw	s1,4(sp)
 190:	40295913          	srai	s2,s2,0x2
 194:	02090063          	beqz	s2,1b4 <__libc_init_array+0x44>
 198:	3c800413          	li	s0,968
 19c:	00000493          	li	s1,0
 1a0:	00042783          	lw	a5,0(s0)
 1a4:	00148493          	addi	s1,s1,1
 1a8:	00440413          	addi	s0,s0,4
 1ac:	000780e7          	jalr	a5
 1b0:	fe9918e3          	bne	s2,s1,1a0 <__libc_init_array+0x30>
 1b4:	3c800793          	li	a5,968
 1b8:	3c800913          	li	s2,968
 1bc:	40f90933          	sub	s2,s2,a5
 1c0:	40295913          	srai	s2,s2,0x2
 1c4:	02090063          	beqz	s2,1e4 <__libc_init_array+0x74>
 1c8:	3c800413          	li	s0,968
 1cc:	00000493          	li	s1,0
 1d0:	00042783          	lw	a5,0(s0)
 1d4:	00148493          	addi	s1,s1,1
 1d8:	00440413          	addi	s0,s0,4
 1dc:	000780e7          	jalr	a5
 1e0:	fe9918e3          	bne	s2,s1,1d0 <__libc_init_array+0x60>
 1e4:	00c12083          	lw	ra,12(sp)
 1e8:	00812403          	lw	s0,8(sp)
 1ec:	00412483          	lw	s1,4(sp)
 1f0:	00012903          	lw	s2,0(sp)
 1f4:	01010113          	addi	sp,sp,16
 1f8:	00008067          	ret

000001fc <_Z6_writelPhl>:
  
   // return # of bytes written - as best we can tell
   //for (unsigned int i = 0; i < len; i++)
   while(*ptr != 0)
   {
    *dbg = *ptr;
 1fc:	40000717          	auipc	a4,0x40000
 200:	e1472703          	lw	a4,-492(a4) # 40000010 <_edata>
   while(*ptr != 0)
 204:	0005c783          	lbu	a5,0(a1)
 208:	00078863          	beqz	a5,218 <_Z6_writelPhl+0x1c>
    *dbg = *ptr;
 20c:	00f72023          	sw	a5,0(a4)
    ptr++;
 210:	00158593          	addi	a1,a1,1
   while(*ptr != 0)
 214:	ff1ff06f          	j	204 <_Z6_writelPhl+0x8>
   }
   return (true);
}
 218:	00100513          	li	a0,1
 21c:	00008067          	ret

00000220 <_Z6printfPc>:

void printf(char str[])
{
 220:	00050593          	mv	a1,a0
    _write(0, reinterpret_cast<uint8_t*>(str), sizeof(str));
 224:	00400613          	li	a2,4
 228:	00000513          	li	a0,0
 22c:	fd1ff06f          	j	1fc <_Z6_writelPhl>

00000230 <main>:
        return val;
    }

};

int main(int argc, char **argv) {
 230:	fe010113          	addi	sp,sp,-32
 234:	00812c23          	sw	s0,24(sp)
 238:	00912a23          	sw	s1,20(sp)
 23c:	01212823          	sw	s2,16(sp)
 240:	01312623          	sw	s3,12(sp)
 244:	01412423          	sw	s4,8(sp)
 248:	01512223          	sw	s5,4(sp)
 24c:	01612023          	sw	s6,0(sp)
 250:	00112e23          	sw	ra,28(sp)
  // Any data written to the stack segment will connect the lowest four bits to
  // the board leds
  volatile uint32_t *var = (volatile uint32_t *) 0x40005ffc;
  uint8_t cnt = 0;
  *var = 0xffffffff; 
 254:	400067b7          	lui	a5,0x40006
 258:	fff00713          	li	a4,-1
 25c:	fee7ae23          	sw	a4,-4(a5) # 40005ffc <_stack_start+0x3fc>
  titi tata;  

  printf("Giorno core running\n");    
 260:	00000517          	auipc	a0,0x0
 264:	0b050513          	addi	a0,a0,176 # 310 <__DTOR_END__>
  titi tata;  
 268:	f3fc1437          	lui	s0,0xf3fc1
  printf("Giorno core running\n");    
 26c:	fb5ff0ef          	jal	ra,220 <_Z6printfPc>
  titi tata;  
 270:	c3f40413          	addi	s0,s0,-961 # f3fc0c3f <_stack_start+0xb3fbb03f>
  uint8_t cnt = 0;
 274:	00000493          	li	s1,0
  );
 278:	00600993          	li	s3,6
        printf("Applying array value\n");
        *var = toto[cnt&3];
    }
    else
    {
        printf("Applying value from class method\n");       
 27c:	00000a17          	auipc	s4,0x0
 280:	0c4a0a13          	addi	s4,s4,196 # 340 <__DTOR_END__+0x30>
        *var = tata.run(4);
 284:	40006937          	lui	s2,0x40006
        printf("Applying array value\n");
 288:	00000a97          	auipc	s5,0x0
 28c:	0a0a8a93          	addi	s5,s5,160 # 328 <__DTOR_END__+0x18>
        *var = toto[cnt&3];
 290:	40000b17          	auipc	s6,0x40000
 294:	d70b0b13          	addi	s6,s6,-656 # 40000000 <toto>
  );
 298:	00098793          	mv	a5,s3
 29c:	00000013          	nop
 2a0:	00000013          	nop
 2a4:	00000013          	nop
 2a8:	00000013          	nop
 2ac:	fff78793          	addi	a5,a5,-1
 2b0:	fe0796e3          	bnez	a5,29c <main+0x6c>
    if (cnt & 0x4)
 2b4:	0044f793          	andi	a5,s1,4
 2b8:	02078663          	beqz	a5,2e4 <main+0xb4>
        printf("Applying array value\n");
 2bc:	000a8513          	mv	a0,s5
 2c0:	f61ff0ef          	jal	ra,220 <_Z6printfPc>
        *var = toto[cnt&3];
 2c4:	0034f793          	andi	a5,s1,3
 2c8:	00279793          	slli	a5,a5,0x2
 2cc:	00fb07b3          	add	a5,s6,a5
 2d0:	0007a783          	lw	a5,0(a5)
 2d4:	fef92e23          	sw	a5,-4(s2) # 40005ffc <_stack_start+0x3fc>
    }
    cnt++;
 2d8:	00148493          	addi	s1,s1,1
 2dc:	0ff4f493          	andi	s1,s1,255
    usleep(1); // 1000 ms
 2e0:	fb9ff06f          	j	298 <main+0x68>
        printf("Applying value from class method\n");       
 2e4:	000a0513          	mv	a0,s4
 2e8:	f39ff0ef          	jal	ra,220 <_Z6printfPc>
        val = (val << n) | (val >> (32 - n) );
 2ec:	00441793          	slli	a5,s0,0x4
 2f0:	01c45413          	srli	s0,s0,0x1c
 2f4:	0087e433          	or	s0,a5,s0
        *var = tata.run(4);
 2f8:	fe892e23          	sw	s0,-4(s2)
 2fc:	fddff06f          	j	2d8 <main+0xa8>

00000300 <__CTOR_LIST__>:
	...

00000308 <__CTOR_END__>:
	...
