
led.elf:     file format elf32-littleriscv


Disassembly of section .vectors:

00000000 <_stack_start-0x40005c00>:
  // external interrupts are handled by the same callback
  // until compiler supports IRQ routines
  .org 0x00
  .rept 31
  nop
  .endr
   0:	00000013          	nop
   4:	00000013          	nop
   8:	00000013          	nop
   c:	00000013          	nop
  10:	00000013          	nop
  14:	00000013          	nop
  18:	00000013          	nop
  1c:	00000013          	nop
  20:	00000013          	nop
  24:	00000013          	nop
  28:	00000013          	nop
  2c:	00000013          	nop
  30:	00000013          	nop
  34:	00000013          	nop
  38:	00000013          	nop
  3c:	00000013          	nop
  40:	00000013          	nop
  44:	00000013          	nop
  48:	00000013          	nop
  4c:	00000013          	nop
  50:	00000013          	nop
  54:	00000013          	nop
  58:	00000013          	nop
  5c:	00000013          	nop
  60:	00000013          	nop
  64:	00000013          	nop
  68:	00000013          	nop
  6c:	00000013          	nop
  70:	00000013          	nop
  74:	00000013          	nop
  78:	00000013          	nop
  // graffou: ??????? program goes to trap directly ???? jal x0, default_exc_handler
  nop
  7c:	00000013          	nop
  // reset vector
  .org 0x80
  jal x0, reset_handler
  80:	0100006f          	j	90 <reset_handler>

  // illegal instruction exception
  .org 0x84
  jal x0, default_exc_handler
  84:	0080006f          	j	8c <_stext>

  // ecall handler
  .org 0x88
  jal x0, default_exc_handler
  88:	0040006f          	j	8c <_stext>

Disassembly of section .text:

0000008c <_stext>:
  jal x0, default_exc_handler
  8c:	0000006f          	j	8c <_stext>

00000090 <reset_handler>:
  mv  x1, x0
  90:	00000093          	li	ra,0
  mv  x2, x1
  94:	00008113          	mv	sp,ra
  mv  x3, x1
  98:	00008193          	mv	gp,ra
  mv  x4, x1
  9c:	00008213          	mv	tp,ra
  mv  x5, x1
  a0:	00008293          	mv	t0,ra
  mv  x6, x1
  a4:	00008313          	mv	t1,ra
  mv  x7, x1
  a8:	00008393          	mv	t2,ra
  mv  x8, x1
  ac:	00008413          	mv	s0,ra
  mv  x9, x1
  b0:	00008493          	mv	s1,ra
  mv x10, x1
  b4:	00008513          	mv	a0,ra
  mv x11, x1
  b8:	00008593          	mv	a1,ra
  mv x12, x1
  bc:	00008613          	mv	a2,ra
  mv x13, x1
  c0:	00008693          	mv	a3,ra
  mv x14, x1
  c4:	00008713          	mv	a4,ra
  mv x15, x1
  c8:	00008793          	mv	a5,ra
  mv x16, x1
  cc:	00008813          	mv	a6,ra
  mv x17, x1
  d0:	00008893          	mv	a7,ra
  mv x18, x1
  d4:	00008913          	mv	s2,ra
  mv x19, x1
  d8:	00008993          	mv	s3,ra
  mv x20, x1
  dc:	00008a13          	mv	s4,ra
  mv x21, x1
  e0:	00008a93          	mv	s5,ra
  mv x22, x1
  e4:	00008b13          	mv	s6,ra
  mv x23, x1
  e8:	00008b93          	mv	s7,ra
  mv x24, x1
  ec:	00008c13          	mv	s8,ra
  mv x25, x1
  f0:	00008c93          	mv	s9,ra
  mv x26, x1
  f4:	00008d13          	mv	s10,ra
  mv x27, x1
  f8:	00008d93          	mv	s11,ra
  mv x28, x1
  fc:	00008e13          	mv	t3,ra
  mv x29, x1
 100:	00008e93          	mv	t4,ra
  mv x30, x1
 104:	00008f13          	mv	t5,ra
  mv x31, x1
 108:	00008f93          	mv	t6,ra
  la   x2, _stack_start
 10c:	40006117          	auipc	sp,0x40006
 110:	af410113          	addi	sp,sp,-1292 # 40005c00 <_stack_start>

00000114 <_start>:
  la x26, _bss_start
 114:	40000d17          	auipc	s10,0x40000
 118:	f00d0d13          	addi	s10,s10,-256 # 40000014 <_bss_end>
  la x27, _bss_end
 11c:	40000d97          	auipc	s11,0x40000
 120:	ef8d8d93          	addi	s11,s11,-264 # 40000014 <_bss_end>
  bge x26, x27, zero_loop_end
 124:	01bd5863          	bge	s10,s11,134 <zero_loop_end>

00000128 <zero_loop>:
  sw x0, 0(x26)
 128:	000d2023          	sw	zero,0(s10)
  addi x26, x26, 4
 12c:	004d0d13          	addi	s10,s10,4
  ble x26, x27, zero_loop
 130:	ffaddce3          	bge	s11,s10,128 <zero_loop>

00000134 <zero_loop_end>:
  la x26, _sdata
 134:	40000d17          	auipc	s10,0x40000
 138:	eccd0d13          	addi	s10,s10,-308 # 40000000 <toto>
  la x27, _edata
 13c:	40000d97          	auipc	s11,0x40000
 140:	ed4d8d93          	addi	s11,s11,-300 # 40000010 <_edata>
  la x25, _sidata
 144:	3c800c93          	li	s9,968
  bge x26, x27, init_loop_end
 148:	01bd5c63          	bge	s10,s11,160 <init_loop_end>

0000014c <init_loop>:
  lw x1, 0(x25)
 14c:	000ca083          	lw	ra,0(s9)
  sw x1, 0(x26)
 150:	001d2023          	sw	ra,0(s10)
  addi x26, x26, 4  
 154:	004d0d13          	addi	s10,s10,4
  addi x25, x25, 4
 158:	004c8c93          	addi	s9,s9,4
  ble x26, x27, init_loop
 15c:	ffadd8e3          	bge	s11,s10,14c <init_loop>

00000160 <init_loop_end>:
  call    __libc_init_array
 160:	010000ef          	jal	ra,170 <__libc_init_array>

00000164 <main_entry>:
  addi x10, x0, 0
 164:	00000513          	li	a0,0
  addi x11, x0, 0
 168:	00000593          	li	a1,0
  jal x1, main
 16c:	0c4000ef          	jal	ra,230 <main>

00000170 <__libc_init_array>:
 170:	ff010113          	addi	sp,sp,-16
 174:	00812423          	sw	s0,8(sp)
 178:	01212023          	sw	s2,0(sp)
 17c:	3c800793          	li	a5,968
 180:	3c800913          	li	s2,968
 184:	40f90933          	sub	s2,s2,a5
 188:	00112623          	sw	ra,12(sp)
 18c:	00912223          	sw	s1,4(sp)
 190:	40295913          	srai	s2,s2,0x2
 194:	02090063          	beqz	s2,1b4 <__libc_init_array+0x44>
 198:	3c800413          	li	s0,968
 19c:	00000493          	li	s1,0
 1a0:	00042783          	lw	a5,0(s0)
 1a4:	00148493          	addi	s1,s1,1
 1a8:	00440413          	addi	s0,s0,4
 1ac:	000780e7          	jalr	a5
 1b0:	fe9918e3          	bne	s2,s1,1a0 <__libc_init_array+0x30>
 1b4:	3c800793          	li	a5,968
 1b8:	3c800913          	li	s2,968
 1bc:	40f90933          	sub	s2,s2,a5
 1c0:	40295913          	srai	s2,s2,0x2
 1c4:	02090063          	beqz	s2,1e4 <__libc_init_array+0x74>
 1c8:	3c800413          	li	s0,968
 1cc:	00000493          	li	s1,0
 1d0:	00042783          	lw	a5,0(s0)
 1d4:	00148493          	addi	s1,s1,1
 1d8:	00440413          	addi	s0,s0,4
 1dc:	000780e7          	jalr	a5
 1e0:	fe9918e3          	bne	s2,s1,1d0 <__libc_init_array+0x60>
 1e4:	00c12083          	lw	ra,12(sp)
 1e8:	00812403          	lw	s0,8(sp)
 1ec:	00412483          	lw	s1,4(sp)
 1f0:	00012903          	lw	s2,0(sp)
 1f4:	01010113          	addi	sp,sp,16
 1f8:	00008067          	ret

000001fc <_Z6_writelPhl>:
  
   // return # of bytes written - as best we can tell
   //for (unsigned int i = 0; i < len; i++)
   while(*ptr != 0)
   {
    *dbg = *ptr;
 1fc:	40000717          	auipc	a4,0x40000
 200:	e1472703          	lw	a4,-492(a4) # 40000010 <_edata>
   while(*ptr != 0)
 204:	0005c783          	lbu	a5,0(a1)
 208:	00078863          	beqz	a5,218 <_Z6_writelPhl+0x1c>
    *dbg = *ptr;
 20c:	00f72023          	sw	a5,0(a4)
    ptr++;
 210:	00158593          	addi	a1,a1,1
   while(*ptr != 0)
 214:	ff1ff06f          	j	204 <_Z6_writelPhl+0x8>
   }
   return (true);
}
 218:	00100513          	li	a0,1
 21c:	00008067          	ret

00000220 <_Z6printfPc>:

void printf(char str[])
{
 220:	00050593          	mv	a1,a0
    _write(0, reinterpret_cast<uint8_t*>(str), sizeof(str));
 224:	00400613          	li	a2,4
 228:	00000513          	li	a0,0
 22c:	fd1ff06f          	j	1fc <_Z6_writelPhl>

00000230 <main>:
        return val;
    }

};

int main(int argc, char **argv) {
 230:	fe010113          	addi	sp,sp,-32
 234:	00812c23          	sw	s0,24(sp)
 238:	00912a23          	sw	s1,20(sp)
 23c:	01212823          	sw	s2,16(sp)
 240:	01312623          	sw	s3,12(sp)
 244:	01412423          	sw	s4,8(sp)
 248:	01512223          	sw	s5,4(sp)
 24c:	01612023          	sw	s6,0(sp)
 250:	00112e23          	sw	ra,28(sp)
  // Any data written to the stack segment will connect the lowest four bits to
  // the board leds
  volatile uint32_t *var = (volatile uint32_t *) 0x40005ffc;
  uint8_t cnt = 0;
  *var = 0xffffffff; 
 254:	400067b7          	lui	a5,0x40006
 258:	fff00713          	li	a4,-1
 25c:	fee7ae23          	sw	a4,-4(a5) # 40005ffc <_stack_start+0x3fc>
  titi tata;  

  printf("Giorno core running\n");    
 260:	00000517          	auipc	a0,0x0
 264:	0b050513          	addi	a0,a0,176 # 310 <__DTOR_END__>
  titi tata;  
 268:	f3fc1437          	lui	s0,0xf3fc1
  printf("Giorno core running\n");    
 26c:	fb5ff0ef          	jal	ra,220 <_Z6printfPc>
  titi tata;  
 270:	c3f40413          	addi	s0,s0,-961 # f3fc0c3f <_stack_start+0xb3fbb03f>
  uint8_t cnt = 0;
 274:	00000493          	li	s1,0
  );
 278:	00600993          	li	s3,6
        printf("Applying array value\n");
        *var = toto[cnt&3];
    }
    else
    {
        printf("Applying value from class method\n");       
 27c:	00000a17          	auipc	s4,0x0
 280:	0c4a0a13          	addi	s4,s4,196 # 340 <__DTOR_END__+0x30>
        *var = tata.run(4);
 284:	40006937          	lui	s2,0x40006
        printf("Applying array value\n");
 288:	00000a97          	auipc	s5,0x0
 28c:	0a0a8a93          	addi	s5,s5,160 # 328 <__DTOR_END__+0x18>
        *var = toto[cnt&3];
 290:	40000b17          	auipc	s6,0x40000
 294:	d70b0b13          	addi	s6,s6,-656 # 40000000 <toto>
  );
 298:	00098793          	mv	a5,s3
 29c:	00000013          	nop
 2a0:	00000013          	nop
 2a4:	00000013          	nop
 2a8:	00000013          	nop
 2ac:	fff78793          	addi	a5,a5,-1
 2b0:	fe0796e3          	bnez	a5,29c <main+0x6c>
    if (cnt & 0x4)
 2b4:	0044f793          	andi	a5,s1,4
 2b8:	02078663          	beqz	a5,2e4 <main+0xb4>
        printf("Applying array value\n");
 2bc:	000a8513          	mv	a0,s5
 2c0:	f61ff0ef          	jal	ra,220 <_Z6printfPc>
        *var = toto[cnt&3];
 2c4:	0034f793          	andi	a5,s1,3
 2c8:	00279793          	slli	a5,a5,0x2
 2cc:	00fb07b3          	add	a5,s6,a5
 2d0:	0007a783          	lw	a5,0(a5)
 2d4:	fef92e23          	sw	a5,-4(s2) # 40005ffc <_stack_start+0x3fc>
    }
    cnt++;
 2d8:	00148493          	addi	s1,s1,1
 2dc:	0ff4f493          	andi	s1,s1,255
    usleep(1); // 1000 ms
 2e0:	fb9ff06f          	j	298 <main+0x68>
        printf("Applying value from class method\n");       
 2e4:	000a0513          	mv	a0,s4
 2e8:	f39ff0ef          	jal	ra,220 <_Z6printfPc>
        val = (val << n) | (val >> (32 - n) );
 2ec:	00441793          	slli	a5,s0,0x4
 2f0:	01c45413          	srli	s0,s0,0x1c
 2f4:	0087e433          	or	s0,a5,s0
        *var = tata.run(4);
 2f8:	fe892e23          	sw	s0,-4(s2)
 2fc:	fddff06f          	j	2d8 <main+0xa8>

00000300 <__CTOR_LIST__>:
	...

00000308 <__CTOR_END__>:
	...

Disassembly of section .rodata:

00000310 <.rodata>:
 310:	726f6947          	fmsub.d	fs2,ft10,ft6,fa4,unknown
 314:	6f6e                	flw	ft10,216(sp)
 316:	6320                	flw	fs0,64(a4)
 318:	2065726f          	jal	tp,5751e <_min_stack+0x5651e>
 31c:	7572                	flw	fa0,60(sp)
 31e:	6e6e                	flw	ft8,216(sp)
 320:	6e69                	lui	t3,0x1a
 322:	00000a67          	jalr	s4,zero # 0 <__DYNAMIC>
 326:	0000                	unimp
 328:	7041                	c.lui	zero,0xffff0
 32a:	6c70                	flw	fa2,92(s0)
 32c:	6979                	lui	s2,0x1e
 32e:	676e                	flw	fa4,216(sp)
 330:	6120                	flw	fs0,64(a0)
 332:	7272                	flw	ft4,60(sp)
 334:	7961                	lui	s2,0xffff8
 336:	7620                	flw	fs0,104(a2)
 338:	6c61                	lui	s8,0x18
 33a:	6575                	lui	a0,0x1d
 33c:	000a                	c.slli	zero,0x2
 33e:	0000                	unimp
 340:	7041                	c.lui	zero,0xffff0
 342:	6c70                	flw	fa2,92(s0)
 344:	6979                	lui	s2,0x1e
 346:	676e                	flw	fa4,216(sp)
 348:	7620                	flw	fs0,104(a2)
 34a:	6c61                	lui	s8,0x18
 34c:	6575                	lui	a0,0x1d
 34e:	6620                	flw	fs0,72(a2)
 350:	6f72                	flw	ft10,28(sp)
 352:	206d                	jal	3fc <_sidata+0x34>
 354:	73616c63          	bltu	sp,s6,a8c <_sidata+0x6c4>
 358:	656d2073          	csrs	0x656,s10
 35c:	6874                	flw	fa3,84(s0)
 35e:	000a646f          	jal	s0,a635e <_min_stack+0xa535e>
	...

Disassembly of section .eh_frame:

00000364 <.eh_frame>:
 364:	0010                	0x10
 366:	0000                	unimp
 368:	0000                	unimp
 36a:	0000                	unimp
 36c:	7a01                	lui	s4,0xfffe0
 36e:	0052                	c.slli	zero,0x14
 370:	7c01                	lui	s8,0xfffe0
 372:	0101                	addi	sp,sp,0
 374:	00020d1b          	0x20d1b
 378:	0010                	0x10
 37a:	0000                	unimp
 37c:	0018                	0x18
 37e:	0000                	unimp
 380:	fe7c                	fsw	fa5,124(a2)
 382:	ffff                	0xffff
 384:	0024                	addi	s1,sp,8
 386:	0000                	unimp
 388:	0000                	unimp
 38a:	0000                	unimp
 38c:	0010                	0x10
 38e:	0000                	unimp
 390:	002c                	addi	a1,sp,8
 392:	0000                	unimp
 394:	fe8c                	fsw	fa1,56(a3)
 396:	ffff                	0xffff
 398:	0010                	0x10
 39a:	0000                	unimp
 39c:	0000                	unimp
 39e:	0000                	unimp
 3a0:	0024                	addi	s1,sp,8
 3a2:	0000                	unimp
 3a4:	0040                	addi	s0,sp,4
 3a6:	0000                	unimp
 3a8:	fe88                	fsw	fa0,56(a3)
 3aa:	ffff                	0xffff
 3ac:	00d0                	addi	a2,sp,68
 3ae:	0000                	unimp
 3b0:	4400                	lw	s0,8(s0)
 3b2:	200e                	fld	ft0,192(sp)
 3b4:	8860                	0x8860
 3b6:	8902                	jr	s2
 3b8:	93049203          	lh	tp,-1744(s1)
 3bc:	9405                	srai	s0,s0,0x21
 3be:	9506                	add	a0,a0,ra
 3c0:	81089607          	0x81089607
 3c4:	0001                	nop
	...

Disassembly of section .data:

40000000 <toto>:
40000000:	f0f0                	fsw	fa2,100(s1)
40000002:	f0f0                	fsw	fa2,100(s1)
40000004:	0f0f0f0f          	0xf0f0f0f
40000008:	aaaa                	fsd	fa0,336(sp)
4000000a:	aaaa                	fsd	fa0,336(sp)
4000000c:	5555                	li	a0,-11
4000000e:	5555                	li	a0,-11

Disassembly of section .sdata.dbg:

40000010 <dbg>:
volatile uint32_t *dbg = (volatile uint32_t *) 0x40005ff8; 
40000010:	5ff8                	lw	a4,124(a5)
40000012:	4000                	lw	s0,0(s0)

Disassembly of section .stack:

40004c00 <_stack-0x1000>:
	...

Disassembly of section .debug_info:

00000000 <.debug_info>:
  .endr
   0:	0c52                	slli	s8,s8,0x14
   2:	0000                	unimp
   4:	0004                	0x4
   6:	0000                	unimp
   8:	0000                	unimp
   a:	0104                	addi	s1,sp,128
   c:	02b6                	slli	t0,t0,0xd
   e:	0000                	unimp
  10:	0104                	addi	s1,sp,128
  12:	0002                	c.slli64	zero
  14:	4800                	lw	s0,16(s0)
  16:	18000003          	lb	zero,384(zero) # 180 <__libc_init_array+0x10>
	...
  22:	0000                	unimp
  24:	0200                	addi	s0,sp,256
  26:	0601                	addi	a2,a2,0
  28:	03ca                	slli	t2,t2,0x12
  2a:	0000                	unimp
  2c:	00002b03          	lw	s6,0(zero) # 0 <__DYNAMIC>
  30:	0200                	addi	s0,sp,256
  32:	0038182b          	0x38182b
  36:	0000                	unimp
  38:	0102                	c.slli64	sp
  3a:	c808                	sw	a0,16(s0)
  3c:	02000003          	lb	zero,32(zero) # 20 <__DYNAMIC+0x20>
  40:	0502                	c.slli64	a0
  42:	03e4                	addi	s1,sp,460
  44:	0000                	unimp
  46:	0202                	c.slli64	tp
  48:	00021107          	0x21107
  4c:	0300                	addi	s0,sp,384
  4e:	04aa                	slli	s1,s1,0xa
  50:	0000                	unimp
  52:	4d02                	lw	s10,0(sp)
  54:	5918                	lw	a4,48(a0)
  56:	0000                	unimp
  58:	0200                	addi	s0,sp,256
  5a:	0504                	addi	s1,sp,640
  5c:	00c1                	addi	ra,ra,16
  5e:	0000                	unimp
  60:	00018d03          	lb	s10,0(gp)
  64:	0200                	addi	s0,sp,256
  66:	006c194f          	fnmadd.s	fs2,fs8,ft6,ft0,rtz
  6a:	0000                	unimp
  6c:	0402                	c.slli64	s0
  6e:	00007407          	0x7407
  72:	0200                	addi	s0,sp,256
  74:	0508                	addi	a0,sp,640
  76:	00bc                	addi	a5,sp,72
  78:	0000                	unimp
  7a:	0802                	c.slli64	a6
  nop
  7c:	00006f07          	0x6f07
  jal x0, reset_handler
  80:	0400                	addi	s0,sp,512
  82:	0504                	addi	s1,sp,640
  jal x0, default_exc_handler
  84:	6e69                	lui	t3,0x1a
  86:	0074                	addi	a3,sp,12
  jal x0, default_exc_handler
  88:	0402                	c.slli64	s0
  8a:	00007907          	0x7907
  jal x0, default_exc_handler
  8e:	0300                	addi	s0,sp,384
  mv  x1, x0
  90:	002d                	c.nop	11
  92:	0000                	unimp
  mv  x2, x1
  94:	2c131803          	lh	a6,705(t1)
  mv  x3, x1
  98:	0000                	unimp
  9a:	0300                	addi	s0,sp,384
  mv  x4, x1
  9c:	04ac                	addi	a1,sp,584
  9e:	0000                	unimp
  mv  x5, x1
  a0:	4d132c03          	lw	s8,1233(t1)
  mv  x6, x1
  a4:	0000                	unimp
  a6:	0300                	addi	s0,sp,384
  mv  x7, x1
  a8:	0000018f          	0x18f
  mv  x8, x1
  ac:	60143003          	0x60143003
  mv  x9, x1
  b0:	0000                	unimp
  b2:	0500                	addi	s0,sp,640
  mv x10, x1
  b4:	000000a7          	0xa7
  mv x11, x1
  b8:	1002                	c.slli	zero,0x20
  ba:	3c04                	fld	fs1,56(s0)
  mv x12, x1
  bc:	06000003          	lb	zero,96(zero) # 60 <__DYNAMIC+0x60>
  mv x13, x1
  c0:	0279                	addi	tp,tp,30
  c2:	0000                	unimp
  mv x14, x1
  c4:	00025907          	0x25907
  mv x15, x1
  c8:	0400                	addi	s0,sp,512
  ca:	015e                	slli	sp,sp,0x17
  mv x16, x1
  cc:	00008817          	auipc	a6,0x8
  mv x17, x1
  d0:	0300                	addi	s0,sp,384
  d2:	03a0                	addi	s0,sp,456
  mv x18, x1
  d4:	0000                	unimp
  d6:	2e05                	jal	406 <_sidata+0x3e>
  mv x19, x1
  d8:	590e                	lw	s2,224(sp)
  da:	0000                	unimp
  mv x20, x1
  dc:	0300                	addi	s0,sp,384
  de:	0499                	addi	s1,s1,6
  mv x21, x1
  e0:	0000                	unimp
  e2:	7405                	lui	s0,0xfffe1
  mv x22, x1
  e4:	590e                	lw	s2,224(sp)
  e6:	0000                	unimp
  mv x23, x1
  e8:	0300                	addi	s0,sp,384
  ea:	01f8                	addi	a4,sp,204
  mv x24, x1
  ec:	0000                	unimp
  ee:	9305                	srli	a4,a4,0x21
  mv x25, x1
  f0:	00008117          	auipc	sp,0x8
  mv x26, x1
  f4:	0800                	addi	s0,sp,16
  f6:	0508                	addi	a0,sp,640
  mv x27, x1
  f8:	003501a3          	sb	gp,3(a0) # 1d003 <_min_stack+0x1c003>
  mv x28, x1
  fc:	0000                	unimp
  fe:	0000013f a6050409 	0xa60504090000013f
  mv x30, x1
 106:	00012403          	lw	s0,0(sp) # 80f0 <_min_stack+0x70f0>
  mv x31, x1
 10a:	0a00                	addi	s0,sp,272
  la   x2, _stack_start
 10c:	024e                	slli	tp,tp,0x13
 10e:	0000                	unimp
 110:	a705                	j	830 <_sidata+0x468>
 112:	c40c                	sw	a1,8(s0)
  la x26, _bss_start
 114:	0000                	unimp
 116:	0a00                	addi	s0,sp,272
 118:	000001db          	0x1db
  la x27, _bss_end
 11c:	a805                	j	14c <init_loop>
 11e:	00013f13          	sltiu	t5,sp,0
 122:	0000                	unimp
  bge x26, x27, zero_loop_end
 124:	00048b0b          	0x48b0b
  sw x0, 0(x26)
 128:	0500                	addi	s0,sp,640
 12a:	07a4                	addi	s1,sp,968
  addi x26, x26, 4
 12c:	0081                	addi	ra,ra,0
 12e:	0000                	unimp
  ble x26, x27, zero_loop
 130:	0b00                	addi	s0,sp,400
 132:	000004c7          	fmsub.s	fs1,ft0,ft0,ft0,rne
  la x26, _sdata
 136:	a905                	j	566 <_sidata+0x19e>
 138:	0205                	addi	tp,tp,1
 13a:	0001                	nop
  la x27, _edata
 13c:	0400                	addi	s0,sp,512
 13e:	0c00                	addi	s0,sp,528
 140:	0038                	addi	a4,sp,8
 142:	0000                	unimp
  la x25, _sidata
 144:	0000014f          	fnmadd.s	ft2,ft0,ft0,ft0,rne
  bge x26, x27, init_loop_end
 148:	880d                	andi	s0,s0,3
 14a:	0000                	unimp
  lw x1, 0(x25)
 14c:	0300                	addi	s0,sp,384
 14e:	0300                	addi	s0,sp,384
  sw x1, 0(x26)
 150:	00000037          	lui	zero,0x0
  addi x26, x26, 4  
 154:	aa05                	j	284 <main+0x54>
 156:	0000f503          	0xf503
  addi x25, x25, 4
 15a:	0e00                	addi	s0,sp,784
  ble x26, x27, init_loop
 15c:	0304                	addi	s1,sp,384
 15e:	04dd                	addi	s1,s1,23
  call    __libc_init_array
 160:	0000                	unimp
 162:	1606                	slli	a2,a2,0x21
  addi x10, x0, 0
 164:	6c19                	lui	s8,0x6
 166:	0000                	unimp
  addi x11, x0, 0
 168:	0300                	addi	s0,sp,384
 16a:	03b6                	slli	t2,t2,0xd
  jal x1, main
 16c:	0000                	unimp
 16e:	810d0c07          	0x810d0c07
 172:	0000                	unimp
 174:	0300                	addi	s0,sp,384
 176:	019e                	slli	gp,gp,0x7
 178:	0000                	unimp
 17a:	2306                	fld	ft6,64(sp)
 17c:	0001691b          	0x1691b
 180:	0f00                	addi	s0,sp,912
 182:	000001af          	0x1af
 186:	0618                	addi	a4,sp,768
 188:	0834                	addi	a3,sp,24
 18a:	000001db          	0x1db
 18e:	00042e0b          	0x42e0b
 192:	0600                	addi	s0,sp,768
 194:	1336                	slli	t1,t1,0x2d
 196:	000001db          	0x1db
 19a:	1000                	addi	s0,sp,32
 19c:	6b5f 0600 0737      	0x73706006b5f
 1a2:	0081                	addi	ra,ra,0
 1a4:	0000                	unimp
 1a6:	0b04                	addi	s1,sp,400
 1a8:	0476                	slli	s0,s0,0x1d
 1aa:	0000                	unimp
 1ac:	3706                	fld	fa4,96(sp)
 1ae:	0000810b          	0x810b
 1b2:	0800                	addi	s0,sp,16
 1b4:	0001980b          	0x1980b
 1b8:	0600                	addi	s0,sp,768
 1ba:	00811437          	lui	s0,0x811
 1be:	0000                	unimp
 1c0:	0b0c                	addi	a1,sp,400
 1c2:	00000517          	auipc	a0,0x0
 1c6:	3706                	fld	fa4,96(sp)
 1c8:	0000811b          	0x811b
 1cc:	1000                	addi	s0,sp,32
 1ce:	5f10                	lw	a2,56(a4)
 1d0:	0078                	addi	a4,sp,12
 1d2:	3806                	fld	fa6,96(sp)
 1d4:	0001e10b          	0x1e10b
 1d8:	1400                	addi	s0,sp,544
 1da:	1100                	addi	s0,sp,160
 1dc:	8104                	0x8104
 1de:	0001                	nop
 1e0:	0c00                	addi	s0,sp,528
 1e2:	015d                	addi	sp,sp,23
 1e4:	0000                	unimp
 1e6:	01f1                	addi	gp,gp,28
 1e8:	0000                	unimp
 1ea:	880d                	andi	s0,s0,3
 1ec:	0000                	unimp
 1ee:	0000                	unimp
 1f0:	0f00                	addi	s0,sp,912
 1f2:	01d6                	slli	gp,gp,0x15
 1f4:	0000                	unimp
 1f6:	0624                	addi	s1,sp,776
 1f8:	083c                	addi	a5,sp,24
 1fa:	0274                	addi	a3,sp,268
    *dbg = *ptr;
 1fc:	0000                	unimp
 1fe:	0000b30b          	0xb30b
 202:	0600                	addi	s0,sp,768
   while(*ptr != 0)
 204:	093e                	slli	s2,s2,0xf
 206:	0081                	addi	ra,ra,0
 208:	0000                	unimp
 20a:	0b00                	addi	s0,sp,400
    *dbg = *ptr;
 20c:	04a1                	addi	s1,s1,8
 20e:	0000                	unimp
    ptr++;
 210:	3f06                	fld	ft10,96(sp)
 212:	8109                	srli	a0,a0,0x2
   while(*ptr != 0)
 214:	0000                	unimp
 216:	0400                	addi	s0,sp,512
}
 218:	0000e40b          	0xe40b
 21c:	0600                	addi	s0,sp,768
 21e:	0940                	addi	s0,sp,148
{
 220:	0081                	addi	ra,ra,0
 222:	0000                	unimp
    _write(0, reinterpret_cast<uint8_t*>(str), sizeof(str));
 224:	0b08                	addi	a0,sp,400
 226:	00000593          	li	a1,0
 22a:	4106                	lw	sp,64(sp)
 22c:	8109                	srli	a0,a0,0x2
 22e:	0000                	unimp
int main(int argc, char **argv) {
 230:	0c00                	addi	s0,sp,528
 232:	0003840b          	0x3840b
 236:	0600                	addi	s0,sp,768
 238:	0942                	slli	s2,s2,0x10
 23a:	0081                	addi	ra,ra,0
 23c:	0000                	unimp
 23e:	0b10                	addi	a2,sp,400
 240:	0292                	slli	t0,t0,0x4
 242:	0000                	unimp
 244:	4306                	lw	t1,64(sp)
 246:	8109                	srli	a0,a0,0x2
 248:	0000                	unimp
 24a:	1400                	addi	s0,sp,544
 24c:	00051c0b          	0x51c0b
 250:	0600                	addi	s0,sp,768
 252:	0944                	addi	s1,sp,148
  *var = 0xffffffff; 
 254:	0081                	addi	ra,ra,0
 256:	0000                	unimp
 258:	0b18                	addi	a4,sp,400
 25a:	03ee                	slli	t2,t2,0x1b
 25c:	0000                	unimp
 25e:	4506                	lw	a0,64(sp)
  printf("Giorno core running\n");    
 260:	8109                	srli	a0,a0,0x2
 262:	0000                	unimp
 264:	1c00                	addi	s0,sp,560
 266:	00055c0b          	0x55c0b
  titi tata;  
 26a:	0600                	addi	s0,sp,768
  printf("Giorno core running\n");    
 26c:	0946                	slli	s2,s2,0x11
 26e:	0081                	addi	ra,ra,0
  titi tata;  
 270:	0000                	unimp
 272:	0020                	addi	s0,sp,8
  uint8_t cnt = 0;
 274:	f312                	fsw	ft4,164(sp)
 276:	0000                	unimp
  );
 278:	0800                	addi	s0,sp,16
 27a:	0601                	addi	a2,a2,0
        printf("Applying value from class method\n");       
 27c:	02b9084f          	fnmadd.d	fa6,fs2,fa1,ft0,rne
 280:	0000                	unimp
 282:	0001800b          	0x1800b
        *var = tata.run(4);
 286:	0600                	addi	s0,sp,768
        printf("Applying array value\n");
 288:	0a50                	addi	a2,sp,276
 28a:	02b9                	addi	t0,t0,14
 28c:	0000                	unimp
 28e:	0b00                	addi	s0,sp,400
        *var = toto[cnt&3];
 290:	0000                	unimp
 292:	0000                	unimp
 294:	5106                	lw	sp,96(sp)
 296:	b909                	j	fffffea8 <_stack_start+0xbfffa2a8>
  );
 298:	0002                	c.slli64	zero
 29a:	8000                	0x8000
 29c:	0004cf13          	xori	t5,s1,0
 2a0:	0600                	addi	s0,sp,768
 2a2:	015d0a53          	fadd.s	fs4,fs10,fs5,rne
 2a6:	0000                	unimp
 2a8:	0100                	addi	s0,sp,128
 2aa:	00012413          	slti	s0,sp,0
 2ae:	0600                	addi	s0,sp,768
 2b0:	0a56                	slli	s4,s4,0x15
 2b2:	015d                	addi	sp,sp,23
    if (cnt & 0x4)
 2b4:	0000                	unimp
 2b6:	0104                	addi	s1,sp,128
 2b8:	0c00                	addi	s0,sp,528
 2ba:	0000015b          	0x15b
        printf("Applying array value\n");
 2be:	02c9                	addi	t0,t0,18
 2c0:	0000                	unimp
 2c2:	880d                	andi	s0,s0,3
        *var = toto[cnt&3];
 2c4:	0000                	unimp
 2c6:	1f00                	addi	s0,sp,944
 2c8:	1200                	addi	s0,sp,288
 2ca:	038d                	addi	t2,t2,3
 2cc:	0000                	unimp
 2ce:	0190                	addi	a2,sp,192
 2d0:	6206                	flw	ft4,64(sp)
 2d2:	0c08                	addi	a0,sp,528
 2d4:	0b000003          	lb	zero,176(zero) # b0 <reset_handler+0x20>
    cnt++;
 2d8:	042e                	slli	s0,s0,0xb
 2da:	0000                	unimp
 2dc:	6306                	flw	ft6,64(sp)
 2de:	0c12                	slli	s8,s8,0x4
    usleep(1); // 1000 ms
 2e0:	00000003          	lb	zero,0(zero) # 0 <__DYNAMIC>
        printf("Applying value from class method\n");       
 2e4:	0004460b          	0x4460b
 2e8:	0600                	addi	s0,sp,768
 2ea:	0664                	addi	s1,sp,780
        val = (val << n) | (val >> (32 - n) );
 2ec:	0081                	addi	ra,ra,0
 2ee:	0000                	unimp
 2f0:	0b04                	addi	s1,sp,400
 2f2:	0188                	addi	a0,sp,192
 2f4:	0000                	unimp
 2f6:	6606                	flw	fa2,64(sp)
        *var = tata.run(4);
 2f8:	1209                	addi	tp,tp,-30
 2fa:	08000003          	lb	zero,128(zero) # 80 <__DYNAMIC+0x80>
 2fe:	0000f30b          	0xf30b
 302:	0600                	addi	s0,sp,768
 304:	02741e67          	0x2741e67
 308:	0000                	unimp
 30a:	0088                	addi	a0,sp,64
 30c:	0411                	addi	s0,s0,4
 30e:	02c9                	addi	t0,t0,18
 310:	0000                	unimp
 312:	220c                	fld	fa1,0(a2)
 314:	22000003          	lb	zero,544(zero) # 220 <_Z6printfPc>
 318:	0d000003          	lb	zero,208(zero) # d0 <reset_handler+0x40>
 31c:	0088                	addi	a0,sp,64
 31e:	0000                	unimp
 320:	001f 0411 0328      	0x3280411001f
 326:	0000                	unimp
 328:	0f14                	addi	a3,sp,912
 32a:	03f8                	addi	a4,sp,460
 32c:	0000                	unimp
 32e:	0608                	addi	a0,sp,768
 330:	087a                	slli	a6,a6,0x1e
 332:	0351                	addi	t1,t1,20
 334:	0000                	unimp
 336:	0000d00b          	0xd00b
 33a:	0600                	addi	s0,sp,768
 33c:	0351117b          	0x351117b
 340:	0000                	unimp
 342:	0b00                	addi	s0,sp,400
 344:	0012                	c.slli	zero,0x4
 346:	0000                	unimp
 348:	7c06                	flw	fs8,96(sp)
 34a:	8106                	mv	sp,ra
 34c:	0000                	unimp
 34e:	0400                	addi	s0,sp,512
 350:	1100                	addi	s0,sp,160
 352:	3804                	fld	fs1,48(s0)
 354:	0000                	unimp
 356:	0f00                	addi	s0,sp,912
 358:	0418                	addi	a4,sp,512
 35a:	0000                	unimp
 35c:	0668                	addi	a0,sp,780
 35e:	08ba                	slli	a7,a7,0xe
 360:	049a                	slli	s1,s1,0x6
 362:	0000                	unimp
 364:	5f10                	lw	a2,56(a4)
 366:	0070                	addi	a2,sp,12
 368:	bb06                	fsd	ft1,432(sp)
 36a:	5112                	lw	sp,36(sp)
 36c:	00000003          	lb	zero,0(zero) # 0 <__DYNAMIC>
 370:	5f10                	lw	a2,56(a4)
 372:	0072                	c.slli	zero,0x1c
 374:	bc06                	fsd	ft1,56(sp)
 376:	00008107          	0x8107
 37a:	0400                	addi	s0,sp,512
 37c:	5f10                	lw	a2,56(a4)
 37e:	bd060077          	0xbd060077
 382:	00008107          	0x8107
 386:	0800                	addi	s0,sp,16
 388:	00011d0b          	0x11d0b
 38c:	0600                	addi	s0,sp,768
 38e:	09be                	slli	s3,s3,0xf
 390:	0000003f 01f20b0c 	0x1f20b0c0000003f
 398:	0000                	unimp
 39a:	bf06                	fsd	ft1,440(sp)
 39c:	3f09                	jal	2ae <main+0x7e>
 39e:	0000                	unimp
 3a0:	0e00                	addi	s0,sp,784
 3a2:	5f10                	lw	a2,56(a4)
 3a4:	6662                	flw	fa2,24(sp)
 3a6:	0600                	addi	s0,sp,768
 3a8:	11c0                	addi	s0,sp,228
 3aa:	0329                	addi	t1,t1,10
 3ac:	0000                	unimp
 3ae:	0b10                	addi	a2,sp,400
 3b0:	0086                	slli	ra,ra,0x1
 3b2:	0000                	unimp
 3b4:	c106                	sw	ra,128(sp)
 3b6:	00008107          	0x8107
 3ba:	1800                	addi	s0,sp,48
 3bc:	00010d0b          	0x10d0b
 3c0:	0600                	addi	s0,sp,768
 3c2:	0ac8                	addi	a0,sp,340
 3c4:	0000015b          	0x15b
 3c8:	0b1c                	addi	a5,sp,400
 3ca:	01c6                	slli	gp,gp,0x11
 3cc:	0000                	unimp
 3ce:	ca06                	sw	ra,20(sp)
 3d0:	7f1d                	lui	t5,0xfffe7
 3d2:	20000007          	0x20000007
 3d6:	00028b0b          	0x28b0b
 3da:	0600                	addi	s0,sp,768
 3dc:	1dcc                	addi	a1,sp,756
 3de:	07a9                	addi	a5,a5,10
 3e0:	0000                	unimp
 3e2:	0b24                	addi	s1,sp,408
 3e4:	00000493          	li	s1,0
 3e8:	cf06                	sw	ra,156(sp)
 3ea:	cd0d                	beqz	a0,424 <_sidata+0x5c>
 3ec:	28000007          	0x28000007
 3f0:	0005760b          	0x5760b
 3f4:	0600                	addi	s0,sp,768
 3f6:	09d0                	addi	a2,sp,212
 3f8:	000007e7          	jalr	a5,zero # 0 <__DYNAMIC>
 3fc:	102c                	addi	a1,sp,40
 3fe:	755f 0062 d306      	0xd3060062755f
 404:	2911                	jal	818 <_sidata+0x450>
 406:	30000003          	lb	zero,768(zero) # 300 <__CTOR_LIST__>
 40a:	5f10                	lw	a2,56(a4)
 40c:	7075                	c.lui	zero,0xffffd
 40e:	0600                	addi	s0,sp,768
 410:	12d4                	addi	a3,sp,356
 412:	0351                	addi	t1,t1,20
 414:	0000                	unimp
 416:	1038                	addi	a4,sp,40
 418:	755f 0072 d506      	0xd5060072755f
 41e:	00008107          	0x8107
 422:	3c00                	fld	fs0,56(s0)
 424:	0000ca0b          	0xca0b
 428:	0600                	addi	s0,sp,768
 42a:	11d8                	addi	a4,sp,228
 42c:	07ed                	addi	a5,a5,27
 42e:	0000                	unimp
 430:	0b40                	addi	s0,sp,404
 432:	0549                	addi	a0,a0,18
 434:	0000                	unimp
 436:	d906                	sw	ra,176(sp)
 438:	fd11                	bnez	a0,354 <__DTOR_END__+0x44>
 43a:	43000007          	0x43000007
 43e:	5f10                	lw	a2,56(a4)
 440:	626c                	flw	fa1,68(a2)
 442:	0600                	addi	s0,sp,768
 444:	11dc                	addi	a5,sp,228
 446:	0329                	addi	t1,t1,10
 448:	0000                	unimp
 44a:	0b44                	addi	s1,sp,404
 44c:	00000133          	add	sp,zero,zero
 450:	df06                	sw	ra,188(sp)
 452:	00008107          	0x8107
 456:	4c00                	lw	s0,24(s0)
 458:	0001540b          	0x1540b
 45c:	0600                	addi	s0,sp,768
 45e:	0ae0                	addi	s0,sp,348
 460:	00d1                	addi	ra,ra,20
 462:	0000                	unimp
 464:	0b50                	addi	a2,sp,404
 466:	0042                	c.slli	zero,0x10
 468:	0000                	unimp
 46a:	e306                	fsw	ft1,132(sp)
 46c:	b812                	fsd	ft4,48(sp)
 46e:	0004                	0x4
 470:	5400                	lw	s0,40(s0)
 472:	0002600b          	0x2600b
 476:	0600                	addi	s0,sp,768
 478:	01750ce7          	jalr	s9,23(a0) # 1d9 <__libc_init_array+0x69>
 47c:	0000                	unimp
 47e:	0b58                	addi	a4,sp,404
 480:	0420                	addi	s0,sp,520
 482:	0000                	unimp
 484:	e906                	fsw	ft1,144(sp)
 486:	4f0e                	lw	t5,192(sp)
 488:	0001                	nop
 48a:	5c00                	lw	s0,56(s0)
 48c:	0002660b          	0x2660b
 490:	0600                	addi	s0,sp,768
 492:	09ea                	slli	s3,s3,0x1a
 494:	0081                	addi	ra,ra,0
 496:	0000                	unimp
 498:	0064                	addi	s1,sp,12
 49a:	e915                	bnez	a0,4ce <_sidata+0x106>
 49c:	0000                	unimp
 49e:	b800                	fsd	fs0,48(s0)
 4a0:	0004                	0x4
 4a2:	1600                	addi	s0,sp,800
 4a4:	04b8                	addi	a4,sp,584
 4a6:	0000                	unimp
 4a8:	5b16                	lw	s6,100(sp)
 4aa:	0001                	nop
 4ac:	1600                	addi	s0,sp,800
 4ae:	076d                	addi	a4,a4,27
 4b0:	0000                	unimp
 4b2:	8116                	mv	sp,t0
 4b4:	0000                	unimp
 4b6:	0000                	unimp
 4b8:	0411                	addi	s0,s0,4
 4ba:	000004c3          	fmadd.s	fs1,ft0,ft0,ft0,rne
 4be:	0004b817          	auipc	a6,0x4b
 4c2:	1800                	addi	s0,sp,48
 4c4:	047e                	slli	s0,s0,0x1f
 4c6:	0000                	unimp
 4c8:	0428                	addi	a0,sp,520
 4ca:	6506                	flw	fa0,64(sp)
 4cc:	0802                	c.slli64	a6
 4ce:	076d                	addi	a4,a4,27
 4d0:	0000                	unimp
 4d2:	f019                	bnez	s0,3d8 <_sidata+0x10>
 4d4:	8406                	mv	s0,ra
 4d6:	0502                	c.slli64	a0
 4d8:	00000633          	add	a2,zero,zero
 4dc:	d01a                	sw	t1,32(sp)
 4de:	8606                	mv	a2,ra
 4e0:	0902                	c.slli64	s2
 4e2:	05f1                	addi	a1,a1,28
 4e4:	0000                	unimp
 4e6:	00050a1b          	0x50a1b
 4ea:	0600                	addi	s0,sp,768
 4ec:	88180287          	0x88180287
 4f0:	0000                	unimp
 4f2:	0000                	unimp
 4f4:	0004ba1b          	0x4ba1b
 4f8:	0600                	addi	s0,sp,768
 4fa:	0288                	addi	a0,sp,320
 4fc:	6d12                	flw	fs10,4(sp)
 4fe:	04000007          	0x4000007
 502:	0002391b          	0x2391b
 506:	0600                	addi	s0,sp,768
 508:	0289                	addi	t0,t0,2
 50a:	a810                	fsd	fa2,16(s0)
 50c:	0008                	0x8
 50e:	0800                	addi	s0,sp,16
 510:	0005671b          	0x5671b
 514:	0600                	addi	s0,sp,768
 516:	028a                	slli	t0,t0,0x2
 518:	0001f117          	auipc	sp,0x1f
 51c:	2400                	fld	fs0,8(s0)
 51e:	0001b71b          	0x1b71b
 522:	0600                	addi	s0,sp,768
 524:	810f028b          	0x810f028b
 528:	0000                	unimp
 52a:	4800                	lw	s0,16(s0)
 52c:	0004291b          	0x4291b
 530:	0600                	addi	s0,sp,768
 532:	028c                	addi	a1,sp,320
 534:	7a2c                	flw	fa1,112(a2)
 536:	0000                	unimp
 538:	5000                	lw	s0,32(s0)
 53a:	00057d1b          	0x57d1b
 53e:	0600                	addi	s0,sp,768
 540:	028d                	addi	t0,t0,3
 542:	5f1a                	lw	t5,164(sp)
 544:	0008                	0x8
 546:	5800                	lw	s0,48(s0)
 548:	0004341b          	0x4341b
 54c:	0600                	addi	s0,sp,768
 54e:	028e                	slli	t0,t0,0x3
 550:	4f16                	lw	t5,68(sp)
 552:	0001                	nop
 554:	6800                	flw	fs0,16(s0)
 556:	0005361b          	0x5361b
 55a:	0600                	addi	s0,sp,768
 55c:	4f16028f          	0x4f16028f
 560:	0001                	nop
 562:	7000                	flw	fs0,32(s0)
 564:	0000a51b          	0xa51b
 568:	0600                	addi	s0,sp,768
 56a:	0290                	addi	a2,sp,320
 56c:	4f16                	lw	t5,68(sp)
 56e:	0001                	nop
 570:	7800                	flw	fs0,48(s0)
 572:	00052c1b          	0x52c1b
 576:	0600                	addi	s0,sp,768
 578:	0291                	addi	t0,t0,4
 57a:	b810                	fsd	fa2,48(s0)
 57c:	0008                	0x8
 57e:	8000                	0x8000
 580:	00022d1b          	0x22d1b
 584:	0600                	addi	s0,sp,768
 586:	0292                	slli	t0,t0,0x4
 588:	c810                	sw	a2,16(s0)
 58a:	0008                	0x8
 58c:	8800                	0x8800
 58e:	0004e51b          	0x4e51b
 592:	0600                	addi	s0,sp,768
 594:	810f0293          	addi	t0,t5,-2032 # fffe6810 <_stack_start+0xbffe0c10>
 598:	0000                	unimp
 59a:	a000                	fsd	fs0,0(s0)
 59c:	0001721b          	0x1721b
 5a0:	0600                	addi	s0,sp,768
 5a2:	0294                	addi	a3,sp,320
 5a4:	4f16                	lw	t5,68(sp)
 5a6:	0001                	nop
 5a8:	a400                	fsd	fs0,8(s0)
 5aa:	0000961b          	0x961b
 5ae:	0600                	addi	s0,sp,768
 5b0:	0295                	addi	t0,t0,5
 5b2:	4f16                	lw	t5,68(sp)
 5b4:	0001                	nop
 5b6:	ac00                	fsd	fs0,24(s0)
 5b8:	0001611b          	0x1611b
 5bc:	0600                	addi	s0,sp,768
 5be:	0296                	slli	t0,t0,0x5
 5c0:	4f16                	lw	t5,68(sp)
 5c2:	0001                	nop
 5c4:	b400                	fsd	fs0,40(s0)
 5c6:	0000481b          	0x481b
 5ca:	0600                	addi	s0,sp,768
 5cc:	4f160297          	auipc	t0,0x4f160
 5d0:	0001                	nop
 5d2:	bc00                	fsd	fs0,56(s0)
 5d4:	0000571b          	0x571b
 5d8:	0600                	addi	s0,sp,768
 5da:	0298                	addi	a4,sp,320
 5dc:	4f16                	lw	t5,68(sp)
 5de:	0001                	nop
 5e0:	c400                	sw	s0,8(s0)
 5e2:	0003db1b          	0x3db1b
 5e6:	0600                	addi	s0,sp,768
 5e8:	0299                	addi	t0,t0,6
 5ea:	8108                	0x8108
 5ec:	0000                	unimp
 5ee:	cc00                	sw	s0,24(s0)
 5f0:	1a00                	addi	s0,sp,304
 5f2:	06f0                	addi	a2,sp,844
 5f4:	029f 1809 0006      	0x61809029f
 5fa:	1b00                	addi	s0,sp,432
 5fc:	037d                	addi	t1,t1,31
 5fe:	0000                	unimp
 600:	a106                	fsd	ft1,128(sp)
 602:	1b02                	slli	s6,s6,0x20
 604:	08d8                	addi	a4,sp,84
 606:	0000                	unimp
 608:	1b00                	addi	s0,sp,432
 60a:	02a8                	addi	a0,sp,328
 60c:	0000                	unimp
 60e:	a206                	fsd	ft1,256(sp)
 610:	1802                	slli	a6,a6,0x20
 612:	08e8                	addi	a0,sp,92
 614:	0000                	unimp
 616:	0078                	addi	a4,sp,12
 618:	7e1c                	flw	fa5,56(a2)
 61a:	0004                	0x4
 61c:	0600                	addi	s0,sp,768
 61e:	029a                	slli	t0,t0,0x6
 620:	0004dc0b          	0x4dc0b
 624:	1c00                	addi	s0,sp,560
 626:	0000054f          	fnmadd.s	fa0,ft0,ft0,ft0,rne
 62a:	a306                	fsd	ft1,384(sp)
 62c:	0b02                	c.slli64	s6
 62e:	05f1                	addi	a1,a1,28
 630:	0000                	unimp
 632:	1b00                	addi	s0,sp,432
 634:	03dd                	addi	t2,t2,23
 636:	0000                	unimp
 638:	6706                	flw	fa4,64(sp)
 63a:	0702                	c.slli64	a4
 63c:	0081                	addi	ra,ra,0
 63e:	0000                	unimp
 640:	1b00                	addi	s0,sp,432
 642:	012c                	addi	a1,sp,136
 644:	0000                	unimp
 646:	6c06                	flw	fs8,64(sp)
 648:	0b02                	c.slli64	s6
 64a:	0859                	addi	a6,a6,22
 64c:	0000                	unimp
 64e:	1b04                	addi	s1,sp,432
 650:	01e2                	slli	gp,gp,0x18
 652:	0000                	unimp
 654:	6c06                	flw	fs8,64(sp)
 656:	1402                	slli	s0,s0,0x20
 658:	0859                	addi	a6,a6,22
 65a:	0000                	unimp
 65c:	1b08                	addi	a0,sp,432
 65e:	000001a7          	0x1a7
 662:	6c06                	flw	fs8,64(sp)
 664:	1e02                	slli	t3,t3,0x20
 666:	0859                	addi	a6,a6,22
 668:	0000                	unimp
 66a:	1b0c                	addi	a1,sp,432
 66c:	0441                	addi	s0,s0,16
 66e:	0000                	unimp
 670:	6e06                	flw	ft8,64(sp)
 672:	0802                	c.slli64	a6
 674:	0081                	addi	ra,ra,0
 676:	0000                	unimp
 678:	1b10                	addi	a2,sp,432
 67a:	0020                	addi	s0,sp,8
 67c:	0000                	unimp
 67e:	6f06                	flw	ft10,64(sp)
 680:	0802                	c.slli64	a6
 682:	08f8                	addi	a4,sp,92
 684:	0000                	unimp
 686:	1b14                	addi	a3,sp,432
 688:	045d                	addi	s0,s0,23
 68a:	0000                	unimp
 68c:	7206                	flw	ft4,96(sp)
 68e:	0702                	c.slli64	a4
 690:	0081                	addi	ra,ra,0
 692:	0000                	unimp
 694:	1b30                	addi	a2,sp,440
 696:	0000044b          	fnmsub.s	fs0,ft0,ft0,ft0,rne
 69a:	7306                	flw	ft6,96(sp)
 69c:	1602                	slli	a2,a2,0x20
 69e:	090d                	addi	s2,s2,3
 6a0:	0000                	unimp
 6a2:	1b34                	addi	a3,sp,440
 6a4:	0395                	addi	t2,t2,5
 6a6:	0000                	unimp
 6a8:	7506                	flw	fa0,96(sp)
 6aa:	0702                	c.slli64	a4
 6ac:	0081                	addi	ra,ra,0
 6ae:	0000                	unimp
 6b0:	1b38                	addi	a4,sp,440
 6b2:	00000453          	fadd.s	fs0,ft0,ft0,rne
 6b6:	7706                	flw	fa4,96(sp)
 6b8:	0a02                	c.slli64	s4
 6ba:	091e                	slli	s2,s2,0x7
 6bc:	0000                	unimp
 6be:	1b3c                	addi	a5,sp,440
 6c0:	0246                	slli	tp,tp,0x11
 6c2:	0000                	unimp
 6c4:	7a06                	flw	fs4,96(sp)
 6c6:	1302                	slli	t1,t1,0x20
 6c8:	000001db          	0x1db
 6cc:	1b40                	addi	s0,sp,436
 6ce:	01cc                	addi	a1,sp,196
 6d0:	0000                	unimp
 6d2:	7b06                	flw	fs6,96(sp)
 6d4:	0702                	c.slli64	a4
 6d6:	0081                	addi	ra,ra,0
 6d8:	0000                	unimp
 6da:	1b44                	addi	s1,sp,436
 6dc:	0589                	addi	a1,a1,2
 6de:	0000                	unimp
 6e0:	7c06                	flw	fs8,96(sp)
 6e2:	1302                	slli	t1,t1,0x20
 6e4:	000001db          	0x1db
 6e8:	1b48                	addi	a0,sp,436
 6ea:	03ac                	addi	a1,sp,456
 6ec:	0000                	unimp
 6ee:	7d06                	flw	fs10,96(sp)
 6f0:	1402                	slli	s0,s0,0x20
 6f2:	0924                	addi	s1,sp,152
 6f4:	0000                	unimp
 6f6:	1b4c                	addi	a1,sp,436
 6f8:	01ea                	slli	gp,gp,0x1a
 6fa:	0000                	unimp
 6fc:	8006                	c.mv	zero,ra
 6fe:	0702                	c.slli64	a4
 700:	0081                	addi	ra,ra,0
 702:	0000                	unimp
 704:	1b50                	addi	a2,sp,436
 706:	014c                	addi	a1,sp,132
 708:	0000                	unimp
 70a:	8106                	mv	sp,ra
 70c:	0902                	c.slli64	s2
 70e:	076d                	addi	a4,a4,27
 710:	0000                	unimp
 712:	1b54                	addi	a3,sp,436
 714:	03d6                	slli	t2,t2,0x15
 716:	0000                	unimp
 718:	a406                	fsd	ft1,8(sp)
 71a:	0702                	c.slli64	a4
 71c:	04d2                	slli	s1,s1,0x14
 71e:	0000                	unimp
 720:	1d58                	addi	a4,sp,692
 722:	038d                	addi	t2,t2,3
 724:	0000                	unimp
 726:	a806                	fsd	ft1,16(sp)
 728:	1302                	slli	t1,t1,0x20
 72a:	030c                	addi	a1,sp,384
 72c:	0000                	unimp
 72e:	0148                	addi	a0,sp,132
 730:	241d                	jal	956 <_sidata+0x58e>
 732:	0002                	c.slli64	zero
 734:	0600                	addi	s0,sp,768
 736:	02a9                	addi	t0,t0,10
 738:	c912                	sw	tp,144(sp)
 73a:	0002                	c.slli64	zero
 73c:	4c00                	lw	s0,24(s0)
 73e:	1d01                	addi	s10,s10,-32
 740:	00000207          	0x207
 744:	ad06                	fsd	ft1,152(sp)
 746:	0c02                	c.slli64	s8
 748:	0935                	addi	s2,s2,13
 74a:	0000                	unimp
 74c:	02dc                	addi	a5,sp,324
 74e:	151d                	addi	a0,a0,-25
 750:	0001                	nop
 752:	0600                	addi	s0,sp,768
 754:	02b2                	slli	t0,t0,0xc
 756:	1a10                	addi	a2,sp,304
 758:	0008                	0x8
 75a:	e000                	fsw	fs0,0(s0)
 75c:	1d02                	slli	s10,s10,0x20
 75e:	00ee                	slli	ra,ra,0x1b
 760:	0000                	unimp
 762:	b406                	fsd	ft1,40(sp)
 764:	0a02                	c.slli64	s4
 766:	0941                	addi	s2,s2,16
 768:	0000                	unimp
 76a:	02ec                	addi	a1,sp,332
 76c:	1100                	addi	s0,sp,160
 76e:	7304                	flw	fs1,32(a4)
 770:	02000007          	0x2000007
 774:	0801                	addi	a6,a6,0
 776:	03d1                	addi	t2,t2,20
 778:	0000                	unimp
 77a:	00077317          	auipc	t1,0x77
 77e:	1100                	addi	s0,sp,160
 780:	9a04                	0x9a04
 782:	0004                	0x4
 784:	1500                	addi	s0,sp,672
 786:	00e9                	addi	ra,ra,26
 788:	0000                	unimp
 78a:	000007a3          	sb	zero,15(zero) # f <__DYNAMIC+0xf>
 78e:	b816                	fsd	ft5,48(sp)
 790:	0004                	0x4
 792:	1600                	addi	s0,sp,800
 794:	0000015b          	0x15b
 798:	a316                	fsd	ft5,384(sp)
 79a:	16000007          	0x16000007
 79e:	0081                	addi	ra,ra,0
 7a0:	0000                	unimp
 7a2:	1100                	addi	s0,sp,160
 7a4:	7a04                	flw	fs1,48(a2)
 7a6:	11000007          	0x11000007
 7aa:	8504                	0x8504
 7ac:	15000007          	0x15000007
 7b0:	00dd                	addi	ra,ra,23
 7b2:	0000                	unimp
 7b4:	07cd                	addi	a5,a5,19
 7b6:	0000                	unimp
 7b8:	b816                	fsd	ft5,48(sp)
 7ba:	0004                	0x4
 7bc:	1600                	addi	s0,sp,800
 7be:	0000015b          	0x15b
 7c2:	dd16                	sw	t0,184(sp)
 7c4:	0000                	unimp
 7c6:	1600                	addi	s0,sp,800
 7c8:	0081                	addi	ra,ra,0
 7ca:	0000                	unimp
 7cc:	1100                	addi	s0,sp,160
 7ce:	af04                	fsd	fs1,24(a4)
 7d0:	15000007          	0x15000007
 7d4:	0081                	addi	ra,ra,0
 7d6:	0000                	unimp
 7d8:	000007e7          	jalr	a5,zero # 0 <__DYNAMIC>
 7dc:	b816                	fsd	ft5,48(sp)
 7de:	0004                	0x4
 7e0:	1600                	addi	s0,sp,800
 7e2:	0000015b          	0x15b
 7e6:	1100                	addi	s0,sp,160
 7e8:	d304                	sw	s1,32(a4)
 7ea:	0c000007          	0xc000007
 7ee:	0038                	addi	a4,sp,8
 7f0:	0000                	unimp
 7f2:	07fd                	addi	a5,a5,31
 7f4:	0000                	unimp
 7f6:	880d                	andi	s0,s0,3
 7f8:	0000                	unimp
 7fa:	0200                	addi	s0,sp,256
 7fc:	0c00                	addi	s0,sp,528
 7fe:	0038                	addi	a4,sp,8
 800:	0000                	unimp
 802:	080d                	addi	a6,a6,3
 804:	0000                	unimp
 806:	880d                	andi	s0,s0,3
 808:	0000                	unimp
 80a:	0000                	unimp
 80c:	0700                	addi	s0,sp,896
 80e:	0411                	addi	s0,s0,4
 810:	0000                	unimp
 812:	2406                	fld	fs0,64(sp)
 814:	1a01                	addi	s4,s4,-32
 816:	00000357          	0x357
 81a:	261e                	fld	fa2,448(sp)
 81c:	0005                	c.nop	1
 81e:	0c00                	addi	s0,sp,528
 820:	2806                	fld	fa6,64(sp)
 822:	0801                	addi	a6,a6,0
 824:	00000853          	fadd.s	fa6,ft0,ft0,rne
 828:	00042e1b          	0x42e1b
 82c:	0600                	addi	s0,sp,768
 82e:	012a                	slli	sp,sp,0xa
 830:	5311                	li	t1,-28
 832:	0008                	0x8
 834:	0000                	unimp
 836:	00008f1b          	0x8f1b
 83a:	0600                	addi	s0,sp,768
 83c:	8107012b          	0x8107012b
 840:	0000                	unimp
 842:	0400                	addi	s0,sp,512
 844:	0003ff1b          	0x3ff1b
 848:	0600                	addi	s0,sp,768
 84a:	012c                	addi	a1,sp,136
 84c:	0008590b          	0x8590b
 850:	0800                	addi	s0,sp,16
 852:	1100                	addi	s0,sp,160
 854:	1a04                	addi	s1,sp,304
 856:	0008                	0x8
 858:	1100                	addi	s0,sp,160
 85a:	0d04                	addi	s1,sp,656
 85c:	0008                	0x8
 85e:	1e00                	addi	s0,sp,816
 860:	0018                	0x18
 862:	0000                	unimp
 864:	060e                	slli	a2,a2,0x3
 866:	0144                	addi	s1,sp,132
 868:	9808                	0x9808
 86a:	0008                	0x8
 86c:	1b00                	addi	s0,sp,432
 86e:	0485                	addi	s1,s1,1
 870:	0000                	unimp
 872:	4506                	lw	a0,64(sp)
 874:	1201                	addi	tp,tp,-32
 876:	0898                	addi	a4,sp,80
 878:	0000                	unimp
 87a:	1b00                	addi	s0,sp,432
 87c:	04b4                	addi	a3,sp,584
 87e:	0000                	unimp
 880:	4606                	lw	a2,64(sp)
 882:	1201                	addi	tp,tp,-32
 884:	0898                	addi	a4,sp,80
 886:	0000                	unimp
 888:	1b06                	slli	s6,s6,0x21
 88a:	04d8                	addi	a4,sp,580
 88c:	0000                	unimp
 88e:	4706                	lw	a4,64(sp)
 890:	1201                	addi	tp,tp,-32
 892:	0046                	c.slli	zero,0x11
 894:	0000                	unimp
 896:	000c                	0xc
 898:	460c                	lw	a1,8(a2)
 89a:	0000                	unimp
 89c:	a800                	fsd	fs0,16(s0)
 89e:	0008                	0x8
 8a0:	0d00                	addi	s0,sp,656
 8a2:	0088                	addi	a0,sp,64
 8a4:	0000                	unimp
 8a6:	0002                	c.slli64	zero
 8a8:	730c                	flw	fa1,32(a4)
 8aa:	b8000007          	0xb8000007
 8ae:	0008                	0x8
 8b0:	0d00                	addi	s0,sp,656
 8b2:	0088                	addi	a0,sp,64
 8b4:	0000                	unimp
 8b6:	0019                	c.nop	6
 8b8:	730c                	flw	fa1,32(a4)
 8ba:	c8000007          	0xc8000007
 8be:	0008                	0x8
 8c0:	0d00                	addi	s0,sp,656
 8c2:	0088                	addi	a0,sp,64
 8c4:	0000                	unimp
 8c6:	730c0007          	0x730c0007
 8ca:	d8000007          	0xd8000007
 8ce:	0008                	0x8
 8d0:	0d00                	addi	s0,sp,656
 8d2:	0088                	addi	a0,sp,64
 8d4:	0000                	unimp
 8d6:	510c0017          	auipc	zero,0x510c0
 8da:	e8000003          	lb	zero,-384(zero) # fffffe80 <_stack_start+0xbfffa280>
 8de:	0008                	0x8
 8e0:	0d00                	addi	s0,sp,656
 8e2:	0088                	addi	a0,sp,64
 8e4:	0000                	unimp
 8e6:	001d                	c.nop	7
 8e8:	880c                	0x880c
 8ea:	0000                	unimp
 8ec:	f800                	fsw	fs0,48(s0)
 8ee:	0008                	0x8
 8f0:	0d00                	addi	s0,sp,656
 8f2:	0088                	addi	a0,sp,64
 8f4:	0000                	unimp
 8f6:	001d                	c.nop	7
 8f8:	730c                	flw	fa1,32(a4)
 8fa:	08000007          	0x8000007
 8fe:	0009                	c.nop	2
 900:	0d00                	addi	s0,sp,656
 902:	0088                	addi	a0,sp,64
 904:	0000                	unimp
 906:	0018                	0x18
 908:	6e1f 0002 1100      	0x110000026e1f
 90e:	0804                	addi	s1,sp,16
 910:	0009                	c.nop	2
 912:	2000                	fld	fs0,0(s0)
 914:	091e                	slli	s2,s2,0x7
 916:	0000                	unimp
 918:	b816                	fsd	ft5,48(sp)
 91a:	0004                	0x4
 91c:	0000                	unimp
 91e:	0411                	addi	s0,s0,4
 920:	00000913          	li	s2,0
 924:	0411                	addi	s0,s0,4
 926:	000001db          	0x1db
 92a:	3520                	fld	fs0,104(a0)
 92c:	0009                	c.nop	2
 92e:	1600                	addi	s0,sp,800
 930:	0081                	addi	ra,ra,0
 932:	0000                	unimp
 934:	1100                	addi	s0,sp,160
 936:	3b04                	fld	fs1,48(a4)
 938:	0009                	c.nop	2
 93a:	1100                	addi	s0,sp,160
 93c:	2a04                	fld	fs1,16(a2)
 93e:	0009                	c.nop	2
 940:	0c00                	addi	s0,sp,528
 942:	080d                	addi	a6,a6,3
 944:	0000                	unimp
 946:	0951                	addi	s2,s2,20
 948:	0000                	unimp
 94a:	880d                	andi	s0,s0,3
 94c:	0000                	unimp
 94e:	0200                	addi	s0,sp,256
 950:	2100                	fld	fs0,0(a0)
 952:	04f9                	addi	s1,s1,30
 954:	0000                	unimp
 956:	3306                	fld	ft6,96(sp)
 958:	04b81703          	lh	a4,75(a6) # 4b509 <_min_stack+0x4a509>
 95c:	0000                	unimp
 95e:	f221                	bnez	a2,89e <_sidata+0x4d6>
 960:	0004                	0x4
 962:	0600                	addi	s0,sp,768
 964:	0334                	addi	a3,sp,392
 966:	be1d                	j	49c <_sidata+0xd4>
 968:	0004                	0x4
 96a:	2200                	fld	fs0,0(a2)
 96c:	6264                	flw	fs1,68(a2)
 96e:	0b010067          	jr	176(sp) # 1f5c8 <_min_stack+0x1e5c8>
 972:	7d14                	flw	fa3,56(a0)
 974:	0009                	c.nop	2
 976:	0500                	addi	s0,sp,640
 978:	00001003          	lh	zero,0(zero) # 0 <__DYNAMIC>
 97c:	1140                	addi	s0,sp,164
 97e:	b304                	fsd	fs1,32(a4)
 980:	0000                	unimp
 982:	0c00                	addi	s0,sp,528
 984:	000000a7          	0xa7
 988:	00000993          	li	s3,0
 98c:	880d                	andi	s0,s0,3
 98e:	0000                	unimp
 990:	0300                	addi	s0,sp,384
 992:	2300                	fld	fs0,0(a4)
 994:	0254                	addi	a3,sp,260
 996:	0000                	unimp
 998:	3b01                	jal	6a8 <_sidata+0x2e0>
 99a:	830a                	mv	t1,sp
 99c:	0009                	c.nop	2
 99e:	0500                	addi	s0,sp,640
 9a0:	00000003          	lb	zero,0(zero) # 0 <__DYNAMIC>
 9a4:	0f40                	addi	s0,sp,916
 9a6:	02b1                	addi	t0,t0,12
 9a8:	0000                	unimp
 9aa:	0104                	addi	s1,sp,128
 9ac:	083e                	slli	a6,a6,0xf
 9ae:	09df 0000 7610      	0x7610000009df
 9b4:	6c61                	lui	s8,0x18
 9b6:	0100                	addi	s0,sp,128
 9b8:	0e40                	addi	s0,sp,788
 9ba:	000000a7          	0xa7
 9be:	2400                	fld	fs0,8(s0)
 9c0:	7572                	flw	fa0,60(sp)
 9c2:	006e                	c.slli	zero,0x1b
 9c4:	4101                	li	sp,0
 9c6:	6e0e                	flw	ft8,192(sp)
 9c8:	a7000003          	lb	zero,-1424(zero) # fffffa70 <_stack_start+0xbfff9e70>
 9cc:	0000                	unimp
 9ce:	d300                	sw	s0,32(a4)
 9d0:	0009                	c.nop	2
 9d2:	2500                	fld	fs0,8(a0)
 9d4:	09df 0000 a716      	0xa716000009df
 9da:	0000                	unimp
 9dc:	0000                	unimp
 9de:	1100                	addi	s0,sp,160
 9e0:	a504                	fsd	fs1,8(a0)
 9e2:	0009                	c.nop	2
 9e4:	1700                	addi	s0,sp,928
 9e6:	09df 0000 8e26      	0x8e26000009df
 9ec:	0005                	c.nop	1
 9ee:	0100                	addi	s0,sp,128
 9f0:	0549                	addi	a0,a0,18
 9f2:	0081                	addi	ra,ra,0
 9f4:	0000                	unimp
 9f6:	0230                	addi	a2,sp,264
 9f8:	0000                	unimp
 9fa:	00d0                	addi	a2,sp,68
 9fc:	0000                	unimp
 9fe:	9c01                	0x9c01
 a00:	0b26                	slli	s6,s6,0x9
 a02:	0000                	unimp
 a04:	00055727          	0x55727
 a08:	0100                	addi	s0,sp,128
 a0a:	0e49                	addi	t3,t3,18
 a0c:	0081                	addi	ra,ra,0
 a0e:	0000                	unimp
 a10:	0000                	unimp
 a12:	0000                	unimp
 a14:	00050527          	0x50527
 a18:	0100                	addi	s0,sp,128
 a1a:	1b49                	addi	s6,s6,-14
 a1c:	0b26                	slli	s6,s6,0x9
 a1e:	0000                	unimp
 a20:	0021                	c.nop	8
 a22:	0000                	unimp
 a24:	7628                	flw	fa0,104(a2)
 a26:	7261                	lui	tp,0xffff8
 a28:	0100                	addi	s0,sp,128
 a2a:	164c                	addi	a1,sp,804
 a2c:	097d                	addi	s2,s2,31
 a2e:	0000                	unimp
 a30:	5ffc                	lw	a5,124(a5)
 a32:	4000                	lw	s0,0(s0)
 a34:	6329                	lui	t1,0xa
 a36:	746e                	flw	fs0,248(sp)
 a38:	0100                	addi	s0,sp,128
 a3a:	0b4d                	addi	s6,s6,19
 a3c:	0000008f          	0x8f
 a40:	0042                	c.slli	zero,0x10
 a42:	0000                	unimp
 a44:	442a                	lw	s0,136(sp)
 a46:	0005                	c.nop	1
 a48:	0100                	addi	s0,sp,128
 a4a:	09a5084f          	fnmadd.s	fa6,fa0,fs10,ft1,rne
 a4e:	0000                	unimp
 a50:	006c                	addi	a1,sp,12
 a52:	0000                	unimp
 a54:	000b4e2b          	0xb4e2b
 a58:	7800                	flw	fs0,48(s0)
 a5a:	0002                	c.slli64	zero
 a5c:	0000                	unimp
 a5e:	0000                	unimp
 a60:	0100                	addi	s0,sp,128
 a62:	0b54                	addi	a3,sp,404
 a64:	0ac0                	addi	s0,sp,340
 a66:	0000                	unimp
 a68:	5f2c                	lw	a1,120(a4)
 a6a:	a000000b          	0xa000000b
 a6e:	0000                	unimp
 a70:	2d00                	fld	fs0,24(a0)
 a72:	0b6c                	addi	a1,sp,412
 a74:	0000                	unimp
 a76:	0278                	addi	a4,sp,268
 a78:	0000                	unimp
 a7a:	0000                	unimp
 a7c:	0000                	unimp
 a7e:	3801                	jal	28e <main+0x5e>
 a80:	2c15                	jal	cb4 <_sidata+0x8ec>
 a82:	0b7d                	addi	s6,s6,31
 a84:	0000                	unimp
 a86:	00a0                	addi	s0,sp,72
 a88:	0000                	unimp
 a8a:	002e                	c.slli	zero,0xb
 a8c:	0000                	unimp
 a8e:	2f00                	fld	fs0,24(a4)
 a90:	0b89                	addi	s7,s7,2
 a92:	0000                	unimp
 a94:	00b4                	addi	a3,sp,72
 a96:	0000                	unimp
 a98:	962d                	srai	a2,a2,0x2b
 a9a:	7800000b          	0x7800000b
 a9e:	0002                	c.slli64	zero
 aa0:	0000                	unimp
 aa2:	0000                	unimp
 aa4:	0100                	addi	s0,sp,128
 aa6:	a32c1233          	0xa32c1233
 aaa:	b400000b          	0xb400000b
 aae:	0000                	unimp
 ab0:	2e00                	fld	fs0,24(a2)
 ab2:	0000                	unimp
 ab4:	0000                	unimp
 ab6:	af30                	fsd	fa2,88(a4)
 ab8:	0000000b          	0xb
 abc:	0000                	unimp
 abe:	0000                	unimp
 ac0:	2c31                	jal	cdc <_sidata+0x914>
 ac2:	ec00000b          	0xec00000b
 ac6:	0002                	c.slli64	zero
 ac8:	0c00                	addi	s0,sp,528
 aca:	0000                	unimp
 acc:	0100                	addi	s0,sp,128
 ace:	185f 0aea 0000      	0xaea185f
 ad4:	3a32                	fld	fs4,296(sp)
 ad6:	0600000b          	0x600000b
 ada:	44f2                	lw	s1,28(sp)
 adc:	000a                	c.slli	zero,0x2
 ade:	0000                	unimp
 ae0:	432c                	lw	a1,64(a4)
 ae2:	c800000b          	0xc800000b
 ae6:	0000                	unimp
 ae8:	0000                	unimp
 aea:	00027033          	and	zero,tp,zero
 aee:	bc00                	fsd	fs0,56(s0)
 af0:	0100000b          	0x100000b
 af4:	3400000b          	0x3400000b
 af8:	5a01                	li	s4,-32
 afa:	0305                	addi	t1,t1,1
 afc:	0310                	addi	a2,sp,384
 afe:	0000                	unimp
 b00:	3300                	fld	fs0,32(a4)
 b02:	02c4                	addi	s1,sp,324
 b04:	0000                	unimp
 b06:	0bbc                	addi	a5,sp,472
 b08:	0000                	unimp
 b0a:	0b15                	addi	s6,s6,5
 b0c:	0000                	unimp
 b0e:	0134                	addi	a3,sp,136
 b10:	025a                	slli	tp,tp,0x16
 b12:	0085                	addi	ra,ra,1
 b14:	3500                	fld	fs0,40(a0)
 b16:	02ec                	addi	a1,sp,332
 b18:	0000                	unimp
 b1a:	0bbc                	addi	a5,sp,472
 b1c:	0000                	unimp
 b1e:	0134                	addi	a3,sp,136
 b20:	025a                	slli	tp,tp,0x16
 b22:	0084                	addi	s1,sp,64
 b24:	0000                	unimp
 b26:	0411                	addi	s0,s0,4
 b28:	076d                	addi	a4,a4,27
 b2a:	0000                	unimp
 b2c:	bf36                	fsd	fa3,440(sp)
 b2e:	0009                	c.nop	2
 b30:	3a00                	fld	fs0,48(a2)
 b32:	0300000b          	0x300000b
 b36:	0b4e                	slli	s6,s6,0x13
 b38:	0000                	unimp
 b3a:	00015c37          	lui	s8,0x15
 b3e:	e500                	fsw	fs0,8(a0)
 b40:	0009                	c.nop	2
 b42:	3800                	fld	fs0,48(s0)
 b44:	006e                	c.slli	zero,0x1b
 b46:	4101                	li	sp,0
 b48:	0000a71b          	0xa71b
 b4c:	0000                	unimp
 b4e:	8239                	srli	a2,a2,0xe
 b50:	0005                	c.nop	1
 b52:	0100                	addi	s0,sp,128
 b54:	00810c37          	lui	s8,0x810
 b58:	0000                	unimp
 b5a:	6c01                	0x6c01
 b5c:	3a00000b          	0x3a00000b
 b60:	000003a7          	0x3a7
 b64:	3701                	jal	a64 <_sidata+0x69c>
 b66:	6c21                	lui	s8,0x8
 b68:	0000                	unimp
 b6a:	0000                	unimp
 b6c:	9c39                	0x9c39
 b6e:	0002                	c.slli64	zero
 b70:	0100                	addi	s0,sp,128
 b72:	00810c2f          	0x810c2f
 b76:	0000                	unimp
 b78:	9601                	srai	a2,a2,0x20
 b7a:	3a00000b          	0x3a00000b
 b7e:	000003a7          	0x3a7
 b82:	2f01                	jal	1292 <_min_stack+0x292>
 b84:	6c26                	flw	fs8,72(sp)
 b86:	0000                	unimp
 b88:	3b00                	fld	fs0,48(a4)
 b8a:	0101                	addi	sp,sp,0
 b8c:	0000                	unimp
 b8e:	3001                	jal	38e <__DTOR_END__+0x7e>
 b90:	6c11                	lui	s8,0x4
 b92:	0000                	unimp
 b94:	0000                	unimp
 b96:	3c3c                	fld	fa5,120(s0)
 b98:	0001                	nop
 b9a:	0100                	addi	s0,sp,128
 b9c:	0d21                	addi	s10,s10,8
 b9e:	bc01                	j	5ae <_sidata+0x1e6>
 ba0:	3a00000b          	0x3a00000b
 ba4:	000c                	0xc
 ba6:	0000                	unimp
 ba8:	2101                	jal	fa8 <_sidata+0xbe0>
 baa:	00006c2b          	0x6c2b
 bae:	3d00                	fld	fs0,56(a0)
 bb0:	0074756f          	jal	a0,483b6 <_min_stack+0x473b6>
 bb4:	2201                	jal	cb4 <_sidata+0x8ec>
 bb6:	00008107          	0x8107
 bba:	0000                	unimp
 bbc:	683e                	flw	fa6,204(sp)
 bbe:	0000                	unimp
 bc0:	0100                	addi	s0,sp,128
 bc2:	0619                	addi	a2,a2,6
 bc4:	0405                	addi	s0,s0,1
 bc6:	0000                	unimp
 bc8:	0220                	addi	s0,sp,264
 bca:	0000                	unimp
 bcc:	0010                	0x10
 bce:	0000                	unimp
 bd0:	9c01                	0x9c01
 bd2:	0c02                	c.slli64	s8
 bd4:	0000                	unimp
 bd6:	7274733f 12190100 	0x121901007274733f
 bde:	076d                	addi	a4,a4,27
 be0:	0000                	unimp
 be2:	00dc                	addi	a5,sp,68
 be4:	0000                	unimp
 be6:	3040                	fld	fs0,160(s0)
 be8:	0002                	c.slli64	zero
 bea:	0200                	addi	s0,sp,256
 bec:	000c                	0xc
 bee:	3400                	fld	fs0,40(s0)
 bf0:	5a01                	li	s4,-32
 bf2:	3001                	jal	3f2 <_sidata+0x2a>
 bf4:	0134                	addi	a3,sp,136
 bf6:	01f3035b          	0x1f3035b
 bfa:	345a                	fld	fs0,432(sp)
 bfc:	5c01                	li	s8,-32
 bfe:	3401                	jal	5fe <_sidata+0x236>
 c00:	0000                	unimp
 c02:	8b41                	andi	a4,a4,16
 c04:	0002                	c.slli64	zero
 c06:	0100                	addi	s0,sp,128
 c08:	050c                	addi	a1,sp,640
 c0a:	00d6                	slli	ra,ra,0x15
 c0c:	0000                	unimp
 c0e:	0081                	addi	ra,ra,0
 c10:	0000                	unimp
 c12:	01fc                	addi	a5,sp,204
 c14:	0000                	unimp
 c16:	0024                	addi	s1,sp,8
 c18:	0000                	unimp
 c1a:	9c01                	0x9c01
 c1c:	00000c4f          	fnmadd.s	fs8,ft0,ft0,ft0,rne
 c20:	0001f327          	0x1f327
 c24:	0100                	addi	s0,sp,128
 c26:	140c                	addi	a1,sp,544
 c28:	0000009b          	0x9b
 c2c:	0108                	addi	a0,sp,128
 c2e:	0000                	unimp
 c30:	7274703f 230c0100 	0x230c01007274703f
 c38:	00000c4f          	fnmadd.s	fs8,ft0,ft0,ft0,rne
 c3c:	0129                	addi	sp,sp,10
 c3e:	0000                	unimp
 c40:	6c42                	flw	fs8,16(sp)
 c42:	6e65                	lui	t3,0x19
 c44:	0100                	addi	s0,sp,128
 c46:	300c                	fld	fa1,32(s0)
 c48:	0000009b          	0x9b
 c4c:	5c01                	li	s8,-32
 c4e:	1100                	addi	s0,sp,160
 c50:	8f04                	0x8f04
 c52:	0000                	unimp
 c54:	0000                	unimp
 c56:	001e                	c.slli	zero,0x7
 c58:	0000                	unimp
 c5a:	0002                	c.slli64	zero
 c5c:	03b8                	addi	a4,sp,456
 c5e:	0000                	unimp
 c60:	0104                	addi	s1,sp,128
 c62:	00000323          	sb	zero,6(zero) # 6 <__DYNAMIC+0x6>
 c66:	0038                	addi	a4,sp,8
 c68:	0000                	unimp
 c6a:	059d                	addi	a1,a1,7
 c6c:	0000                	unimp
 c6e:	0348                	addi	a0,sp,388
 c70:	0000                	unimp
 c72:	05a4                	addi	s1,sp,712
 c74:	0000                	unimp
 c76:	8001                	c.srli64	s0

Disassembly of section .debug_abbrev:

00000000 <.debug_abbrev>:
  .endr
   0:	1101                	addi	sp,sp,-32
   2:	2501                	jal	602 <_sidata+0x23a>
   4:	130e                	slli	t1,t1,0x23
   6:	1b0e030b          	0x1b0e030b
   a:	550e                	lw	a0,224(sp)
   c:	10011117          	auipc	sp,0x10011
  10:	02000017          	auipc	zero,0x2000
  14:	0024                	addi	s1,sp,8
  16:	0b3e0b0b          	0xb3e0b0b
  1a:	00000e03          	lb	t3,0(zero) # 0 <__DYNAMIC>
  1e:	03001603          	lh	a2,48(zero) # 30 <__DYNAMIC+0x30>
  22:	3a0e                	fld	fs4,224(sp)
  24:	390b3b0b          	0x390b3b0b
  28:	0013490b          	0x13490b
  2c:	0400                	addi	s0,sp,512
  2e:	0024                	addi	s1,sp,8
  30:	0b3e0b0b          	0xb3e0b0b
  34:	00000803          	lb	a6,0(zero) # 0 <__DYNAMIC>
  38:	3505                	jal	fffffe58 <_stack_start+0xbfffa258>
  3a:	4900                	lw	s0,16(a0)
  3c:	06000013          	li	zero,96
  40:	0e03003b          	0xe03003b
  44:	0000                	unimp
  46:	03001607          	0x3001607
  4a:	3a0e                	fld	fs4,224(sp)
  4c:	39053b0b          	0x39053b0b
  50:	0013490b          	0x13490b
  54:	0800                	addi	s0,sp,16
  56:	0b0b0113          	addi	sp,s6,176
  5a:	0b3a                	slli	s6,s6,0xe
  5c:	0b390b3b          	0xb390b3b
  60:	0e6e                	slli	t3,t3,0x1b
  62:	1301                	addi	t1,t1,-32
  64:	0000                	unimp
  66:	1709                	addi	a4,a4,-30
  68:	0b01                	addi	s6,s6,0
  6a:	3b0b3a0b          	0x3b0b3a0b
  6e:	010b390b          	0x10b390b
  72:	0a000013          	li	zero,160
  76:	000d                	c.nop	3
  78:	0b3a0e03          	lb	t3,179(s4) # fffe00b3 <_stack_start+0xbffda4b3>
  nop
  7c:	0b390b3b          	0xb390b3b
  jal x0, reset_handler
  80:	1349                	addi	t1,t1,-14
  82:	0000                	unimp
  jal x0, default_exc_handler
  84:	03000d0b          	0x3000d0b
  jal x0, default_exc_handler
  88:	3a0e                	fld	fs4,224(sp)
  8a:	390b3b0b          	0x390b3b0b
  jal x0, default_exc_handler
  8e:	3813490b          	0x3813490b
  mv  x1, x0
  92:	0c00000b          	0xc00000b
  mv  x2, x1
  96:	0101                	addi	sp,sp,0
  mv  x3, x1
  98:	1349                	addi	t1,t1,-14
  9a:	1301                	addi	t1,t1,-32
  mv  x4, x1
  9c:	0000                	unimp
  9e:	210d                	jal	4c0 <_sidata+0xf8>
  mv  x5, x1
  a0:	4900                	lw	s0,16(a0)
  a2:	000b2f13          	slti	t5,s6,0
  mv  x6, x1
  a6:	0e00                	addi	s0,sp,784
  mv  x7, x1
  a8:	0b0b000f          	0xb0b000f
  mv  x8, x1
  ac:	0000                	unimp
  ae:	0301130f          	0x301130f
  mv  x9, x1
  b2:	0b0e                	slli	s6,s6,0x3
  mv x10, x1
  b4:	3b0b3a0b          	0x3b0b3a0b
  mv x11, x1
  b8:	010b390b          	0x10b390b
  mv x12, x1
  bc:	10000013          	li	zero,256
  mv x13, x1
  c0:	000d                	c.nop	3
  c2:	0b3a0803          	lb	a6,179(s4)
  mv x14, x1
  c6:	0b390b3b          	0xb390b3b
  mv x15, x1
  ca:	1349                	addi	t1,t1,-14
  mv x16, x1
  cc:	0b38                	addi	a4,sp,408
  ce:	0000                	unimp
  mv x17, x1
  d0:	0f11                	addi	t5,t5,4
  d2:	0b00                	addi	s0,sp,400
  mv x18, x1
  d4:	0013490b          	0x13490b
  mv x19, x1
  d8:	1200                	addi	s0,sp,288
  da:	0e030113          	addi	sp,t1,224 # a0e0 <_min_stack+0x90e0>
  mv x20, x1
  de:	0b3a050b          	0xb3a050b
  mv x21, x1
  e2:	0b390b3b          	0xb390b3b
  mv x22, x1
  e6:	1301                	addi	t1,t1,-32
  mv x23, x1
  e8:	0000                	unimp
  ea:	03000d13          	li	s10,48
  mv x24, x1
  ee:	3a0e                	fld	fs4,224(sp)
  mv x25, x1
  f0:	390b3b0b          	0x390b3b0b
  mv x26, x1
  f4:	3813490b          	0x3813490b
  mv x27, x1
  f8:	0005                	c.nop	1
  fa:	1400                	addi	s0,sp,544
  mv x28, x1
  fc:	0015                	c.nop	5
  fe:	0000                	unimp
  mv x29, x1
 100:	1515                	addi	a0,a0,-27
 102:	4901                	li	s2,0
  mv x30, x1
 104:	00130113          	addi	sp,t1,1
  mv x31, x1
 108:	1600                	addi	s0,sp,800
 10a:	0005                	c.nop	1
  la   x2, _stack_start
 10c:	1349                	addi	t1,t1,-14
 10e:	0000                	unimp
 110:	49002617          	auipc	a2,0x49002
  la x26, _bss_start
 114:	18000013          	li	zero,384
 118:	0e030113          	addi	sp,t1,224
  la x27, _bss_end
 11c:	0b3a050b          	0xb3a050b
 120:	0b39053b          	0xb39053b
  bge x26, x27, zero_loop_end
 124:	1301                	addi	t1,t1,-32
 126:	0000                	unimp
  sw x0, 0(x26)
 128:	1719                	addi	a4,a4,-26
 12a:	0b01                	addi	s6,s6,0
  addi x26, x26, 4
 12c:	3b0b3a0b          	0x3b0b3a0b
  ble x26, x27, zero_loop
 130:	3905                	jal	fffffd60 <_stack_start+0xbfffa160>
 132:	0013010b          	0x13010b
  la x26, _sdata
 136:	1a00                	addi	s0,sp,304
 138:	0b0b0113          	addi	sp,s6,176
  la x27, _edata
 13c:	0b3a                	slli	s6,s6,0xe
 13e:	0b39053b          	0xb39053b
 142:	1301                	addi	t1,t1,-32
  la x25, _sidata
 144:	0000                	unimp
 146:	03000d1b          	0x3000d1b
  bge x26, x27, init_loop_end
 14a:	3a0e                	fld	fs4,224(sp)
  lw x1, 0(x25)
 14c:	39053b0b          	0x39053b0b
  sw x1, 0(x26)
 150:	3813490b          	0x3813490b
  addi x26, x26, 4  
 154:	1c00000b          	0x1c00000b
  addi x25, x25, 4
 158:	000d                	c.nop	3
 15a:	0b3a0e03          	lb	t3,179(s4)
  ble x26, x27, init_loop
 15e:	0b39053b          	0xb39053b
  call    __libc_init_array
 162:	1349                	addi	t1,t1,-14
  addi x10, x0, 0
 164:	0000                	unimp
 166:	0d1d                	addi	s10,s10,7
  addi x11, x0, 0
 168:	0300                	addi	s0,sp,384
 16a:	3a0e                	fld	fs4,224(sp)
  jal x1, main
 16c:	39053b0b          	0x39053b0b
 170:	3813490b          	0x3813490b
 174:	0005                	c.nop	1
 176:	1e00                	addi	s0,sp,816
 178:	0e030113          	addi	sp,t1,224
 17c:	0b3a0b0b          	0xb3a0b0b
 180:	0b39053b          	0xb39053b
 184:	1301                	addi	t1,t1,-32
 186:	0000                	unimp
 188:	131f 0300 3c0e      	0x3c0e0300131f
 18e:	0019                	c.nop	6
 190:	2000                	fld	fs0,0(s0)
 192:	0115                	addi	sp,sp,5
 194:	1301                	addi	t1,t1,-32
 196:	0000                	unimp
 198:	3421                	jal	fffffba0 <_stack_start+0xbfff9fa0>
 19a:	0300                	addi	s0,sp,384
 19c:	3a0e                	fld	fs4,224(sp)
 19e:	39053b0b          	0x39053b0b
 1a2:	3f13490b          	0x3f13490b
 1a6:	3c19                	jal	fffffbbc <_stack_start+0xbfff9fbc>
 1a8:	0019                	c.nop	6
 1aa:	2200                	fld	fs0,0(a2)
 1ac:	0034                	addi	a3,sp,8
 1ae:	0b3a0803          	lb	a6,179(s4)
 1b2:	0b390b3b          	0xb390b3b
 1b6:	1349                	addi	t1,t1,-14
 1b8:	1802193f 34230000 	0x342300001802193f
 1c0:	0300                	addi	s0,sp,384
 1c2:	3a0e                	fld	fs4,224(sp)
 1c4:	390b3b0b          	0x390b3b0b
 1c8:	3f13490b          	0x3f13490b
 1cc:	0219                	addi	tp,tp,6
 1ce:	0018                	0x18
 1d0:	2400                	fld	fs0,8(s0)
 1d2:	012e                	slli	sp,sp,0xb
 1d4:	0803193f 0b3b0b3a 	0xb3b0b3a0803193f
 1dc:	0b39                	addi	s6,s6,14
 1de:	0e6e                	slli	t3,t3,0x1b
 1e0:	1349                	addi	t1,t1,-14
 1e2:	193c                	addi	a5,sp,184
 1e4:	1364                	addi	s1,sp,428
 1e6:	0000                	unimp
 1e8:	0525                	addi	a0,a0,9
 1ea:	4900                	lw	s0,16(a0)
 1ec:	00193413          	seqz	s0,s2
 1f0:	2600                	fld	fs0,8(a2)
 1f2:	012e                	slli	sp,sp,0xb
 1f4:	0e03193f 0b3b0b3a 	0xb3b0b3a0e03193f
    *dbg = *ptr;
 1fc:	0b39                	addi	s6,s6,14
 1fe:	1349                	addi	t1,t1,-14
 200:	0111                	addi	sp,sp,4
 202:	0612                	slli	a2,a2,0x4
   while(*ptr != 0)
 204:	1840                	addi	s0,sp,52
 206:	01194297          	auipc	t0,0x1194
 20a:	27000013          	li	zero,624
    *dbg = *ptr;
 20e:	0005                	c.nop	1
    ptr++;
 210:	0b3a0e03          	lb	t3,179(s4)
   while(*ptr != 0)
 214:	0b390b3b          	0xb390b3b
}
 218:	1349                	addi	t1,t1,-14
 21a:	1702                	slli	a4,a4,0x20
 21c:	0000                	unimp
 21e:	3428                	fld	fa0,104(s0)
{
 220:	0300                	addi	s0,sp,384
 222:	3a08                	fld	fa0,48(a2)
    _write(0, reinterpret_cast<uint8_t*>(str), sizeof(str));
 224:	390b3b0b          	0x390b3b0b
 228:	1c13490b          	0x1c13490b
 22c:	0006                	c.slli	zero,0x1
 22e:	2900                	fld	fs0,16(a0)
int main(int argc, char **argv) {
 230:	0034                	addi	a3,sp,8
 232:	0b3a0803          	lb	a6,179(s4)
 236:	0b390b3b          	0xb390b3b
 23a:	1349                	addi	t1,t1,-14
 23c:	1702                	slli	a4,a4,0x20
 23e:	0000                	unimp
 240:	342a                	fld	fs0,168(sp)
 242:	0300                	addi	s0,sp,384
 244:	3a0e                	fld	fs4,224(sp)
 246:	390b3b0b          	0x390b3b0b
 24a:	0213490b          	0x213490b
 24e:	2b000017          	auipc	zero,0x2b000
 252:	011d                	addi	sp,sp,7
  *var = 0xffffffff; 
 254:	1331                	addi	t1,t1,-20
 256:	0152                	slli	sp,sp,0x14
 258:	1755                	addi	a4,a4,-11
 25a:	0b58                	addi	a4,sp,404
 25c:	0b59                	addi	s6,s6,22
 25e:	13010b57          	0x13010b57
  printf("Giorno core running\n");    
 262:	0000                	unimp
 264:	052c                	addi	a1,sp,648
 266:	3100                	fld	fs0,32(a0)
  titi tata;  
 268:	00170213          	addi	tp,a4,1
  printf("Giorno core running\n");    
 26c:	2d00                	fld	fs0,24(a0)
 26e:	011d                	addi	sp,sp,7
  titi tata;  
 270:	1331                	addi	t1,t1,-20
 272:	0152                	slli	sp,sp,0x14
  uint8_t cnt = 0;
 274:	1755                	addi	a4,a4,-11
 276:	0b58                	addi	a4,sp,404
  );
 278:	0b59                	addi	s6,s6,22
 27a:	00000b57          	0xb57
        printf("Applying value from class method\n");       
 27e:	0b2e                	slli	s6,s6,0xb
 280:	5501                	li	a0,-32
 282:	2f000017          	auipc	zero,0x2f000
        *var = tata.run(4);
 286:	0034                	addi	a3,sp,8
        printf("Applying array value\n");
 288:	1331                	addi	t1,t1,-20
 28a:	1702                	slli	a4,a4,0x20
 28c:	0000                	unimp
 28e:	3430                	fld	fa2,104(s0)
        *var = toto[cnt&3];
 290:	3100                	fld	fs0,32(a0)
 292:	31000013          	li	zero,784
 296:	011d                	addi	sp,sp,7
  );
 298:	1331                	addi	t1,t1,-20
 29a:	0111                	addi	sp,sp,4
 29c:	0612                	slli	a2,a2,0x4
 29e:	0b58                	addi	a4,sp,404
 2a0:	0b59                	addi	s6,s6,22
 2a2:	13010b57          	0x13010b57
 2a6:	0000                	unimp
 2a8:	0532                	slli	a0,a0,0xc
 2aa:	3100                	fld	fs0,32(a0)
 2ac:	00180213          	addi	tp,a6,1
 2b0:	3300                	fld	fs0,32(a4)
 2b2:	8289                	srli	a3,a3,0x2
    if (cnt & 0x4)
 2b4:	0101                	addi	sp,sp,0
 2b6:	0111                	addi	sp,sp,4
 2b8:	1331                	addi	t1,t1,-20
 2ba:	1301                	addi	t1,t1,-32
        printf("Applying array value\n");
 2bc:	0000                	unimp
 2be:	8a34                	0x8a34
 2c0:	0182                	c.slli64	gp
 2c2:	0200                	addi	s0,sp,256
        *var = toto[cnt&3];
 2c4:	9118                	0x9118
 2c6:	1842                	slli	a6,a6,0x30
 2c8:	0000                	unimp
 2ca:	8935                	andi	a0,a0,13
 2cc:	0182                	c.slli64	gp
 2ce:	1101                	addi	sp,sp,-32
 2d0:	3101                	jal	fffffed0 <_stack_start+0xbfffa2d0>
 2d2:	36000013          	li	zero,864
 2d6:	012e                	slli	sp,sp,0xb
    cnt++;
 2d8:	13641347          	fmsub.d	ft6,fs0,fs6,ft2,rtz
 2dc:	0b20                	addi	s0,sp,408
 2de:	1301                	addi	t1,t1,-32
    usleep(1); // 1000 ms
 2e0:	0000                	unimp
 2e2:	03000537          	lui	a0,0x3000
        printf("Applying value from class method\n");       
 2e6:	490e                	lw	s2,192(sp)
 2e8:	00193413          	seqz	s0,s2
        val = (val << n) | (val >> (32 - n) );
 2ec:	3800                	fld	fs0,48(s0)
 2ee:	0005                	c.nop	1
 2f0:	0b3a0803          	lb	a6,179(s4)
 2f4:	0b390b3b          	0xb390b3b
        *var = tata.run(4);
 2f8:	1349                	addi	t1,t1,-14
 2fa:	0000                	unimp
 2fc:	2e39                	jal	61a <_sidata+0x252>
 2fe:	0301                	addi	t1,t1,0
 300:	3a0e                	fld	fs4,224(sp)
 302:	390b3b0b          	0x390b3b0b
 306:	2013490b          	0x2013490b
 30a:	0013010b          	0x13010b
 30e:	3a00                	fld	fs0,48(a2)
 310:	0005                	c.nop	1
 312:	0b3a0e03          	lb	t3,179(s4)
 316:	0b390b3b          	0xb390b3b
 31a:	1349                	addi	t1,t1,-14
 31c:	0000                	unimp
 31e:	0300343b          	0x300343b
 322:	3a0e                	fld	fs4,224(sp)
 324:	390b3b0b          	0x390b3b0b
 328:	0013490b          	0x13490b
 32c:	3c00                	fld	fs0,56(s0)
 32e:	012e                	slli	sp,sp,0xb
 330:	0b3a0e03          	lb	t3,179(s4)
 334:	0b390b3b          	0xb390b3b
 338:	0b20                	addi	s0,sp,408
 33a:	1301                	addi	t1,t1,-32
 33c:	0000                	unimp
 33e:	343d                	jal	fffffd6c <_stack_start+0xbfffa16c>
 340:	0300                	addi	s0,sp,384
 342:	3a08                	fld	fa0,48(a2)
 344:	390b3b0b          	0x390b3b0b
 348:	0013490b          	0x13490b
 34c:	3e00                	fld	fs0,56(a2)
 34e:	012e                	slli	sp,sp,0xb
 350:	0e03193f 0b3b0b3a 	0xb3b0b3a0e03193f
 358:	0b39                	addi	s6,s6,14
 35a:	0e6e                	slli	t3,t3,0x1b
 35c:	0111                	addi	sp,sp,4
 35e:	0612                	slli	a2,a2,0x4
 360:	1840                	addi	s0,sp,52
 362:	01194297          	auipc	t0,0x1194
 366:	3f000013          	li	zero,1008
 36a:	0005                	c.nop	1
 36c:	0b3a0803          	lb	a6,179(s4)
 370:	0b390b3b          	0xb390b3b
 374:	1349                	addi	t1,t1,-14
 376:	1702                	slli	a4,a4,0x20
 378:	0000                	unimp
 37a:	8940                	0x8940
 37c:	0182                	c.slli64	gp
 37e:	1101                	addi	sp,sp,-32
 380:	9501                	srai	a0,a0,0x20
 382:	1942                	slli	s2,s2,0x30
 384:	1331                	addi	t1,t1,-20
 386:	0000                	unimp
 388:	2e41                	jal	718 <_sidata+0x350>
 38a:	3f01                	jal	29a <main+0x6a>
 38c:	0319                	addi	t1,t1,6
 38e:	3a0e                	fld	fs4,224(sp)
 390:	390b3b0b          	0x390b3b0b
 394:	490e6e0b          	0x490e6e0b
 398:	12011113          	0x12011113
 39c:	4006                	0x4006
 39e:	9718                	0x9718
 3a0:	1942                	slli	s2,s2,0x30
 3a2:	1301                	addi	t1,t1,-32
 3a4:	0000                	unimp
 3a6:	0542                	slli	a0,a0,0x10
 3a8:	0300                	addi	s0,sp,384
 3aa:	3a08                	fld	fa0,48(a2)
 3ac:	390b3b0b          	0x390b3b0b
 3b0:	0213490b          	0x213490b
 3b4:	0018                	0x18
 3b6:	0000                	unimp
 3b8:	1101                	addi	sp,sp,-32
 3ba:	1000                	addi	s0,sp,32
 3bc:	5506                	lw	a0,96(sp)
 3be:	0306                	slli	t1,t1,0x1
 3c0:	1b0e                	slli	s6,s6,0x23
 3c2:	250e                	fld	fa0,192(sp)
 3c4:	130e                	slli	t1,t1,0x23
 3c6:	0005                	c.nop	1
	...

Disassembly of section .debug_loc:

00000000 <.debug_loc>:
  .endr
   0:	0230                	addi	a2,sp,264
   2:	0000                	unimp
   4:	0268                	addi	a0,sp,268
   6:	0000                	unimp
   8:	0001                	nop
   a:	685a                	flw	fa6,148(sp)
   c:	0002                	c.slli64	zero
   e:	0000                	unimp
  10:	04000003          	lb	zero,64(zero) # 40 <__DYNAMIC+0x40>
  14:	f300                	fsw	fs0,32(a4)
  16:	5a01                	li	s4,-32
  18:	009f 0000 0000      	0x9f
  1e:	0000                	unimp
  20:	3000                	fld	fs0,32(s0)
  22:	0002                	c.slli64	zero
  24:	6f00                	flw	fs0,24(a4)
  26:	0002                	c.slli64	zero
  28:	0100                	addi	s0,sp,128
  2a:	5b00                	lw	s0,48(a4)
  2c:	0000026f          	jal	tp,2c <__DYNAMIC+0x2c>
  30:	0300                	addi	s0,sp,384
  32:	0000                	unimp
  34:	0004                	0x4
  36:	9f5b01f3          	0x9f5b01f3
	...
  42:	0230                	addi	a2,sp,264
  44:	0000                	unimp
  46:	0298                	addi	a4,sp,320
  48:	0000                	unimp
  4a:	0002                	c.slli64	zero
  4c:	9f30                	0x9f30
  4e:	0298                	addi	a4,sp,320
  50:	0000                	unimp
  52:	02dc                	addi	a5,sp,324
  54:	0000                	unimp
  56:	0001                	nop
  58:	e059                	bnez	s0,de <reset_handler+0x4e>
  5a:	0002                	c.slli64	zero
  5c:	0000                	unimp
  5e:	01000003          	lb	zero,16(zero) # 10 <__DYNAMIC+0x10>
  62:	5900                	lw	s0,48(a0)
	...
  6c:	0260                	addi	s0,sp,268
  6e:	0000                	unimp
  70:	0298                	addi	a4,sp,320
  72:	0000                	unimp
  74:	0008                	0x8
  76:	049e                	slli	s1,s1,0x7
  78:	f3fc0c3f 02980493 	0x2980493f3fc0c3f
  jal x0, reset_handler
  80:	0000                	unimp
  82:	02f4                	addi	a3,sp,332
  jal x0, default_exc_handler
  84:	0000                	unimp
  86:	93580003          	lb	zero,-1739(a6)
  jal x0, default_exc_handler
  8a:	f804                	fsw	fs1,48(s0)
  jal x0, default_exc_handler
  8c:	0002                	c.slli64	zero
  8e:	0000                	unimp
  mv  x1, x0
  90:	03000003          	lb	zero,48(zero) # 30 <__DYNAMIC+0x30>
  mv  x2, x1
  94:	5800                	lw	s0,48(s0)
  96:	00000493          	li	s1,0
  mv  x3, x1
  9a:	0000                	unimp
  mv  x4, x1
  9c:	0000                	unimp
  9e:	0000                	unimp
  mv  x5, x1
  a0:	0298                	addi	a4,sp,320
  a2:	0000                	unimp
  mv  x6, x1
  a4:	02b4                	addi	a3,sp,328
  a6:	0000                	unimp
  mv  x7, x1
  a8:	0002                	c.slli64	zero
  aa:	9f31                	0x9f31
	...
  mv x10, x1
  b4:	0298                	addi	a4,sp,320
  b6:	0000                	unimp
  mv x11, x1
  b8:	02b4                	addi	a3,sp,328
  ba:	0000                	unimp
  mv x12, x1
  bc:	0002                	c.slli64	zero
  be:	9f36                	add	t5,t5,a3
	...
  mv x15, x1
  c8:	02ec                	addi	a1,sp,332
  ca:	0000                	unimp
  mv x16, x1
  cc:	02f8                	addi	a4,sp,332
  ce:	0000                	unimp
  mv x17, x1
  d0:	0002                	c.slli64	zero
  d2:	9f34                	0x9f34
	...
  mv x20, x1
  dc:	0220                	addi	s0,sp,264
  de:	0000                	unimp
  mv x21, x1
  e0:	022c                	addi	a1,sp,264
  e2:	0000                	unimp
  mv x22, x1
  e4:	0001                	nop
  e6:	2c5a                	fld	fs8,400(sp)
  mv x23, x1
  e8:	0002                	c.slli64	zero
  ea:	2f00                	fld	fs0,24(a4)
  mv x24, x1
  ec:	0002                	c.slli64	zero
  ee:	0100                	addi	s0,sp,128
  mv x25, x1
  f0:	5b00                	lw	s0,48(a4)
  f2:	0000022f          	0x22f
  mv x26, x1
  f6:	0230                	addi	a2,sp,264
  mv x27, x1
  f8:	0000                	unimp
  fa:	0004                	0x4
  mv x28, x1
  fc:	9f5a01f3          	0x9f5a01f3
	...
  mv x31, x1
 108:	01fc                	addi	a5,sp,204
 10a:	0000                	unimp
  la   x2, _stack_start
 10c:	021c                	addi	a5,sp,256
 10e:	0000                	unimp
 110:	0001                	nop
 112:	1c5a                	slli	s8,s8,0x36
  la x26, _bss_start
 114:	0002                	c.slli64	zero
 116:	2000                	fld	fs0,0(s0)
 118:	0002                	c.slli64	zero
 11a:	0400                	addi	s0,sp,512
  la x27, _bss_end
 11c:	f300                	fsw	fs0,32(a4)
 11e:	5a01                	li	s4,-32
 120:	009f 0000 0000      	0x9f
  bge x26, x27, zero_loop_end
 126:	0000                	unimp
  sw x0, 0(x26)
 128:	fc00                	fsw	fs0,56(s0)
 12a:	0001                	nop
  addi x26, x26, 4
 12c:	1400                	addi	s0,sp,544
 12e:	0002                	c.slli64	zero
  ble x26, x27, zero_loop
 130:	0100                	addi	s0,sp,128
 132:	5b00                	lw	s0,48(a4)
  la x26, _sdata
 134:	0214                	addi	a3,sp,256
 136:	0000                	unimp
 138:	0220                	addi	s0,sp,264
 13a:	0000                	unimp
  la x27, _edata
 13c:	0001                	nop
 13e:	0000005b          	0x5b
 142:	0000                	unimp
  la x25, _sidata
 144:	0000                	unimp
	...

Disassembly of section .debug_aranges:

00000000 <.debug_aranges>:
  .endr
   0:	002c                	addi	a1,sp,8
   2:	0000                	unimp
   4:	0002                	c.slli64	zero
   6:	0000                	unimp
   8:	0000                	unimp
   a:	0004                	0x4
   c:	0000                	unimp
   e:	0000                	unimp
  10:	01fc                	addi	a5,sp,204
  12:	0000                	unimp
  14:	0024                	addi	s1,sp,8
  16:	0000                	unimp
  18:	0220                	addi	s0,sp,264
  1a:	0000                	unimp
  1c:	0010                	0x10
  1e:	0000                	unimp
  20:	0230                	addi	a2,sp,264
  22:	0000                	unimp
  24:	00d0                	addi	a2,sp,68
	...
  2e:	0000                	unimp
  30:	0024                	addi	s1,sp,8
  32:	0000                	unimp
  34:	0002                	c.slli64	zero
  36:	0c56                	slli	s8,s8,0x15
  38:	0000                	unimp
  3a:	0004                	0x4
  3c:	0000                	unimp
  3e:	0000                	unimp
  40:	008c                	addi	a1,sp,64
  42:	0000                	unimp
  44:	00e4                	addi	s1,sp,76
  46:	0000                	unimp
  48:	0000                	unimp
  4a:	0000                	unimp
  4c:	008c                	addi	a1,sp,64
	...

Disassembly of section .debug_ranges:

00000000 <.debug_ranges>:
   0:	0278                	addi	a4,sp,268
   2:	0000                	unimp
   4:	027c                	addi	a5,sp,268
   6:	0000                	unimp
   8:	0298                	addi	a4,sp,320
   a:	0000                	unimp
   c:	02b4                	addi	a3,sp,328
	...
  16:	0000                	unimp
  18:	01fc                	addi	a5,sp,204
  1a:	0000                	unimp
  1c:	0220                	addi	s0,sp,264
  1e:	0000                	unimp
  20:	0220                	addi	s0,sp,264
  22:	0000                	unimp
  24:	0230                	addi	a2,sp,264
  26:	0000                	unimp
  28:	0230                	addi	a2,sp,264
  2a:	0000                	unimp
  2c:	0300                	addi	s0,sp,384
	...
  36:	0000                	unimp
  38:	ffff                	0xffff
  3a:	ffff                	0xffff
  3c:	0000                	unimp
  3e:	0000                	unimp
  40:	008c                	addi	a1,sp,64
  42:	0000                	unimp
  44:	0170                	addi	a2,sp,140
  46:	0000                	unimp
  48:	0000                	unimp
  4a:	0000                	unimp
  4c:	008c                	addi	a1,sp,64
	...

Disassembly of section .debug_line:

00000000 <.debug_line>:
   0:	031f 0000 0003      	0x30000031f
   6:	00f9                	addi	ra,ra,30
   8:	0000                	unimp
   a:	0101                	addi	sp,sp,0
   c:	000d0efb          	0xd0efb
  10:	0101                	addi	sp,sp,0
  12:	0101                	addi	sp,sp,0
  14:	0000                	unimp
  16:	0100                	addi	s0,sp,128
  18:	0000                	unimp
  1a:	2f01                	jal	72a <_sidata+0x362>
  1c:	2f74706f          	j	47b12 <_min_stack+0x46b12>
  20:	6972                	flw	fs2,28(sp)
  22:	2f766373          	csrrsi	t1,0x2f7,12
  26:	6972                	flw	fs2,28(sp)
  28:	36766373          	csrrsi	t1,0x367,12
  2c:	2d34                	fld	fa3,88(a0)
  2e:	6e75                	lui	t3,0x1d
  30:	776f6e6b          	0x776f6e6b
  34:	2d6e                	fld	fs10,216(sp)
  36:	6c65                	lui	s8,0x19
  38:	2f66                	fld	ft10,88(sp)
  3a:	6e69                	lui	t3,0x1a
  3c:	64756c63          	bltu	a0,t2,694 <_sidata+0x2cc>
  40:	2f65                	jal	7f8 <_sidata+0x430>
  42:	616d                	addi	sp,sp,240
  44:	6e696863          	bltu	s2,t1,734 <_sidata+0x36c>
  48:	0065                	c.nop	25
  4a:	74706f2f          	0x74706f2f
  4e:	7369722f          	0x7369722f
  52:	722f7663          	bgeu	t5,sp,77e <_sidata+0x3b6>
  56:	7369                	lui	t1,0xffffa
  58:	34367663          	bgeu	a2,gp,3a4 <__DTOR_END__+0x94>
  5c:	752d                	lui	a0,0xfffeb
  5e:	6b6e                	flw	fs6,216(sp)
  60:	6f6e                	flw	ft10,216(sp)
  62:	652d6e77          	0x652d6e77
  66:	666c                	flw	fa1,76(a2)
  68:	636e692f          	0x636e692f
  6c:	756c                	flw	fa1,108(a0)
  6e:	6564                	flw	fs1,76(a0)
  70:	7379732f          	0x7379732f
  74:	2f00                	fld	fs0,24(a4)
  76:	2f74706f          	j	47b6c <_min_stack+0x46b6c>
  7a:	6972                	flw	fs2,28(sp)
  nop
  7c:	2f766373          	csrrsi	t1,0x2f7,12
  jal x0, reset_handler
  80:	696c                	flw	fa1,84(a0)
  82:	2f62                	fld	ft10,24(sp)
  jal x0, default_exc_handler
  84:	2f636367          	0x2f636367
  jal x0, default_exc_handler
  88:	6972                	flw	fs2,28(sp)
  8a:	36766373          	csrrsi	t1,0x367,12
  jal x0, default_exc_handler
  8e:	2d34                	fld	fa3,88(a0)
  mv  x1, x0
  90:	6e75                	lui	t3,0x1d
  92:	776f6e6b          	0x776f6e6b
  mv  x2, x1
  96:	2d6e                	fld	fs10,216(sp)
  mv  x3, x1
  98:	6c65                	lui	s8,0x19
  9a:	2f66                	fld	ft10,88(sp)
  mv  x4, x1
  9c:	2e39                	jal	3ba <__DTOR_END__+0xaa>
  9e:	2e32                	fld	ft8,264(sp)
  mv  x5, x1
  a0:	2f30                	fld	fa2,88(a4)
  a2:	6e69                	lui	t3,0x1a
  mv  x6, x1
  a4:	64756c63          	bltu	a0,t2,6fc <_sidata+0x334>
  mv  x7, x1
  a8:	0065                	c.nop	25
  aa:	6c00                	flw	fs0,24(s0)
  mv  x8, x1
  ac:	6465                	lui	s0,0x19
  ae:	632e                	flw	ft6,200(sp)
  mv  x9, x1
  b0:	0000                	unimp
  b2:	0000                	unimp
  mv x10, x1
  b4:	645f 6665 7561      	0x75616665645f
  mv x11, x1
  ba:	746c                	flw	fa1,108(s0)
  mv x12, x1
  bc:	745f 7079 7365      	0x73657079745f
  mv x13, x1
  c2:	682e                	flw	fa6,200(sp)
  mv x14, x1
  c4:	0100                	addi	s0,sp,128
  c6:	0000                	unimp
  mv x15, x1
  c8:	735f 6474 6e69      	0x6e696474735f
  mv x16, x1
  ce:	2e74                	fld	fa3,216(a2)
  mv x17, x1
  d0:	0068                	addi	a0,sp,12
  d2:	0002                	c.slli64	zero
  mv x18, x1
  d4:	7300                	flw	fs0,32(a4)
  d6:	6474                	flw	fa3,76(s0)
  mv x19, x1
  d8:	6564                	flw	fs1,76(a0)
  da:	2e66                	fld	ft8,88(sp)
  mv x20, x1
  dc:	0068                	addi	a0,sp,12
  de:	5f000003          	lb	zero,1520(zero) # 5f0 <_sidata+0x228>
  mv x21, x1
  e2:	7974                	flw	fa3,116(a0)
  mv x22, x1
  e4:	6570                	flw	fa2,76(a0)
  e6:	00682e73          	csrrs	t3,0x6,a6
  mv x23, x1
  ea:	0002                	c.slli64	zero
  mv x24, x1
  ec:	7200                	flw	fs0,32(a2)
  ee:	6565                	lui	a0,0x19
  mv x25, x1
  f0:	746e                	flw	fs0,248(sp)
  f2:	682e                	flw	fa6,200(sp)
  mv x26, x1
  f4:	0200                	addi	s0,sp,256
  f6:	0000                	unimp
  mv x27, x1
  f8:	6f6c                	flw	fa1,92(a4)
  fa:	682e6b63          	bltu	t3,sp,790 <_sidata+0x3c8>
  mv x28, x1
  fe:	0200                	addi	s0,sp,256
  mv x29, x1
 100:	0000                	unimp
 102:	0500                	addi	s0,sp,640
  mv x30, x1
 104:	0001                	nop
 106:	0205                	addi	tp,tp,1
  mv x31, x1
 108:	01fc                	addi	a5,sp,204
 10a:	0000                	unimp
  la   x2, _stack_start
 10c:	05010c03          	lb	s8,80(sp) # 1001105c <_min_stack+0x1001005c>
 110:	0605                	addi	a2,a2,1
 112:	00090603          	lb	a2,0(s2) # 1e000 <_min_stack+0x1d000>
  la x26, _bss_start
 116:	0100                	addi	s0,sp,128
 118:	0405                	addi	s0,s0,1
 11a:	0306                	slli	t1,t1,0x1
  la x27, _bss_end
 11c:	097e                	slli	s2,s2,0x1f
 11e:	0008                	0x8
 120:	0501                	addi	a0,a0,0
 122:	0900030f          	0x900030f
  bge x26, x27, zero_loop_end
 126:	0000                	unimp
  sw x0, 0(x26)
 128:	0501                	addi	a0,a0,0
 12a:	060a                	slli	a2,a2,0x2
  addi x26, x26, 4
 12c:	00090003          	lb	zero,0(s2)
  ble x26, x27, zero_loop
 130:	0100                	addi	s0,sp,128
 132:	0f05                	addi	t5,t5,1
  la x26, _sdata
 134:	04090003          	lb	zero,64(s2)
 138:	0100                	addi	s0,sp,128
 13a:	0505                	addi	a0,a0,1
  la x27, _edata
 13c:	0306                	slli	t1,t1,0x1
 13e:	0902                	c.slli64	s2
 140:	0004                	0x4
 142:	0501                	addi	a0,a0,0
  la x25, _sidata
 144:	060a                	slli	a2,a2,0x2
 146:	00090003          	lb	zero,0(s2)
  bge x26, x27, init_loop_end
 14a:	0100                	addi	s0,sp,128
  lw x1, 0(x25)
 14c:	0505                	addi	a0,a0,1
 14e:	0306                	slli	t1,t1,0x1
  sw x1, 0(x26)
 150:	0901                	addi	s2,s2,0
 152:	0004                	0x4
  addi x26, x26, 4  
 154:	0501                	addi	a0,a0,0
 156:	0608                	addi	a0,sp,768
  addi x25, x25, 4
 158:	00090003          	lb	zero,0(s2)
  ble x26, x27, init_loop
 15c:	0100                	addi	s0,sp,128
 15e:	0405                	addi	s0,s0,1
  call    __libc_init_array
 160:	04097d03          	0x4097d03
  addi x10, x0, 0
 164:	0100                	addi	s0,sp,128
 166:	0306                	slli	t1,t1,0x1
  addi x11, x0, 0
 168:	0905                	addi	s2,s2,1
 16a:	0004                	0x4
  jal x1, main
 16c:	0501                	addi	a0,a0,0
 16e:	0601                	addi	a2,a2,0
 170:	00090103          	lb	sp,0(s2)
 174:	0100                	addi	s0,sp,128
 176:	0809                	addi	a6,a6,2
 178:	0000                	unimp
 17a:	0101                	addi	sp,sp,0
 17c:	0105                	addi	sp,sp,1
 17e:	0500                	addi	s0,sp,640
 180:	2002                	fld	ft0,0(sp)
 182:	0002                	c.slli64	zero
 184:	0300                	addi	s0,sp,384
 186:	0119                	addi	sp,sp,6
 188:	0505                	addi	a0,a0,1
 18a:	00090103          	lb	sp,0(s2)
 18e:	0100                	addi	s0,sp,128
 190:	0105                	addi	sp,sp,1
 192:	0306                	slli	t1,t1,0x1
 194:	097f                	0x97f
 196:	0000                	unimp
 198:	0501                	addi	a0,a0,0
 19a:	0901030b          	0x901030b
 19e:	0004                	0x4
 1a0:	0901                	addi	s2,s2,0
 1a2:	000c                	0xc
 1a4:	0100                	addi	s0,sp,128
 1a6:	0501                	addi	a0,a0,0
 1a8:	0021                	c.nop	8
 1aa:	0205                	addi	tp,tp,1
 1ac:	0230                	addi	a2,sp,264
 1ae:	0000                	unimp
 1b0:	0100c803          	lbu	a6,16(ra)
 1b4:	0305                	addi	t1,t1,1
 1b6:	00090303          	lb	t1,0(s2)
 1ba:	0100                	addi	s0,sp,128
 1bc:	00090103          	lb	sp,0(s2)
 1c0:	0100                	addi	s0,sp,128
 1c2:	00090103          	lb	sp,0(s2)
 1c6:	0100                	addi	s0,sp,128
 1c8:	2105                	jal	5e8 <_sidata+0x220>
 1ca:	0306                	slli	t1,t1,0x1
 1cc:	0000097b          	0x97b
 1d0:	0501                	addi	a0,a0,0
 1d2:	0308                	addi	a0,sp,384
 1d4:	0905                	addi	s2,s2,1
 1d6:	0024                	addi	s1,sp,8
 1d8:	0501                	addi	a0,a0,0
 1da:	01030603          	lb	a2,16(t1) # ffffa010 <_stack_start+0xbfff4410>
 1de:	0c09                	addi	s8,s8,2
 1e0:	0100                	addi	s0,sp,128
 1e2:	00090203          	lb	tp,0(s2)
 1e6:	0100                	addi	s0,sp,128
 1e8:	0905                	addi	s2,s2,1
 1ea:	0306                	slli	t1,t1,0x1
 1ec:	0900                	addi	s0,sp,144
 1ee:	0000                	unimp
 1f0:	0501                	addi	a0,a0,0
 1f2:	0308                	addi	a0,sp,384
 1f4:	097e                	slli	s2,s2,0x1f
 1f6:	0008                	0x8
 1f8:	0501                	addi	a0,a0,0
 1fa:	0309                	addi	t1,t1,2
    *dbg = *ptr;
 1fc:	0902                	c.slli64	s2
 1fe:	0004                	0x4
 200:	0501                	addi	a0,a0,0
 202:	0308                	addi	a0,sp,384
   while(*ptr != 0)
 204:	097e                	slli	s2,s2,0x1f
 206:	0004                	0x4
 208:	0501                	addi	a0,a0,0
 20a:	097e030b          	0x97e030b
    *dbg = *ptr;
 20e:	0004                	0x4
    ptr++;
 210:	0501                	addi	a0,a0,0
 212:	0304                	addi	s1,sp,384
   while(*ptr != 0)
 214:	095f 0004 0501      	0x5010004095f
}
 21a:	0932030f          	0x932030f
 21e:	0004                	0x4
{
 220:	0501                	addi	a0,a0,0
 222:	030e                	slli	t1,t1,0x3
    _write(0, reinterpret_cast<uint8_t*>(str), sizeof(str));
 224:	0901                	addi	s2,s2,0
 226:	0008                	0x8
 228:	0501                	addi	a0,a0,0
 22a:	097a030f          	0x97a030f
 22e:	0004                	0x4
int main(int argc, char **argv) {
 230:	0501                	addi	a0,a0,0
 232:	031a                	slli	t1,t1,0x6
 234:	0901                	addi	s2,s2,0
 236:	0008                	0x8
 238:	0501                	addi	a0,a0,0
 23a:	79030603          	lb	a2,1936(t1)
 23e:	0809                	addi	a6,a6,2
 240:	0100                	addi	s0,sp,128
 242:	0505                	addi	a0,a0,1
 244:	00090103          	lb	sp,0(s2)
 248:	0100                	addi	s0,sp,128
 24a:	0305                	addi	t1,t1,1
 24c:	00096403          	0x96403
 250:	0100                	addi	s0,sp,128
 252:	00097803          	0x97803
  *var = 0xffffffff; 
 256:	0100                	addi	s0,sp,128
 258:	00090103          	lb	sp,0(s2)
 25c:	0100                	addi	s0,sp,128
 25e:	00090203          	lb	tp,0(s2)
  printf("Giorno core running\n");    
 262:	0100                	addi	s0,sp,128
 264:	00096f03          	0x96f03
  titi tata;  
 268:	0100                	addi	s0,sp,128
 26a:	00090103          	lb	sp,0(s2)
  printf("Giorno core running\n");    
 26e:	0100                	addi	s0,sp,128
  titi tata;  
 270:	0405                	addi	s0,s0,1
 272:	0306                	slli	t1,t1,0x1
  uint8_t cnt = 0;
 274:	0909                	addi	s2,s2,2
 276:	0000                	unimp
  );
 278:	0501                	addi	a0,a0,0
 27a:	08030603          	lb	a2,128(t1)
        printf("Applying value from class method\n");       
 27e:	1c09                	addi	s8,s8,-30
 280:	0100                	addi	s0,sp,128
 282:	0505                	addi	a0,a0,1
        *var = tata.run(4);
 284:	00092303          	lw	t1,0(s2)
        printf("Applying array value\n");
 288:	0100                	addi	s0,sp,128
 28a:	0905                	addi	s2,s2,1
 28c:	08090203          	lb	tp,128(s2)
        *var = toto[cnt&3];
 290:	0100                	addi	s0,sp,128
 292:	0f05                	addi	t5,t5,1
 294:	0306                	slli	t1,t1,0x1
 296:	0900                	addi	s0,sp,144
  );
 298:	0000                	unimp
 29a:	0501                	addi	a0,a0,0
 29c:	0609                	addi	a2,a2,2
 29e:	08090103          	lb	sp,128(s2)
 2a2:	0100                	addi	s0,sp,128
 2a4:	1805                	addi	a6,a6,-31
 2a6:	0306                	slli	t1,t1,0x1
 2a8:	0900                	addi	s0,sp,144
 2aa:	0000                	unimp
 2ac:	0501                	addi	a0,a0,0
 2ae:	031a                	slli	t1,t1,0x6
 2b0:	0900                	addi	s0,sp,144
 2b2:	0004                	0x4
    if (cnt & 0x4)
 2b4:	0501                	addi	a0,a0,0
 2b6:	030e                	slli	t1,t1,0x3
 2b8:	0900                	addi	s0,sp,144
 2ba:	000c                	0xc
        printf("Applying array value\n");
 2bc:	0501                	addi	a0,a0,0
 2be:	0605                	addi	a2,a2,1
 2c0:	04090703          	lb	a4,64(s2)
        *var = toto[cnt&3];
 2c4:	0100                	addi	s0,sp,128
 2c6:	0805                	addi	a6,a6,1
 2c8:	0306                	slli	t1,t1,0x1
 2ca:	0900                	addi	s0,sp,144
 2cc:	0000                	unimp
 2ce:	0501                	addi	a0,a0,0
 2d0:	72030603          	lb	a2,1824(t1)
 2d4:	0809                	addi	a6,a6,2
 2d6:	0100                	addi	s0,sp,128
    cnt++;
 2d8:	0b05                	addi	s6,s6,1
 2da:	0306                	slli	t1,t1,0x1
 2dc:	0901                	addi	s2,s2,0
 2de:	0000                	unimp
    usleep(1); // 1000 ms
 2e0:	0501                	addi	a0,a0,0
 2e2:	0609                	addi	a2,a2,2
        printf("Applying value from class method\n");       
 2e4:	04090a03          	lb	s4,64(s2)
 2e8:	0100                	addi	s0,sp,128
 2ea:	0f05                	addi	t5,t5,1
        val = (val << n) | (val >> (32 - n) );
 2ec:	0306                	slli	t1,t1,0x1
 2ee:	0900                	addi	s0,sp,144
 2f0:	0000                	unimp
 2f2:	0501                	addi	a0,a0,0
 2f4:	0609                	addi	a2,a2,2
 2f6:	08090103          	lb	sp,128(s2)
        *var = tata.run(4);
 2fa:	0100                	addi	s0,sp,128
 2fc:	00096403          	0x96403
 300:	0100                	addi	s0,sp,128
 302:	1a05                	addi	s4,s4,-31
 304:	0306                	slli	t1,t1,0x1
 306:	0900                	addi	s0,sp,144
 308:	0000                	unimp
 30a:	0501                	addi	a0,a0,0
 30c:	0609                	addi	a2,a2,2
 30e:	0c090103          	lb	sp,192(s2)
 312:	0100                	addi	s0,sp,128
 314:	0e05                	addi	t3,t3,1
 316:	0306                	slli	t1,t1,0x1
 318:	0000091b          	0x91b
 31c:	0901                	addi	s2,s2,0
 31e:	0008                	0x8
 320:	0100                	addi	s0,sp,128
 322:	8c01                	sub	s0,s0,s0
 324:	0001                	nop
 326:	0300                	addi	s0,sp,384
 328:	1d00                	addi	s0,sp,688
 32a:	0000                	unimp
 32c:	0100                	addi	s0,sp,128
 32e:	fb01                	bnez	a4,23e <main+0xe>
 330:	0d0e                	slli	s10,s10,0x3
 332:	0100                	addi	s0,sp,128
 334:	0101                	addi	sp,sp,0
 336:	0001                	nop
 338:	0000                	unimp
 33a:	0001                	nop
 33c:	0100                	addi	s0,sp,128
 33e:	6300                	flw	fs0,0(a4)
 340:	7472                	flw	fs0,60(sp)
 342:	2e30                	fld	fa2,88(a2)
 344:	00000053          	fadd.s	ft0,ft0,ft0,rne
 348:	0000                	unimp
 34a:	0500                	addi	s0,sp,640
 34c:	8c02                	jr	s8
 34e:	0000                	unimp
 350:	1500                	addi	s0,sp,672
 352:	04090403          	lb	s0,64(s2)
 356:	0100                	addi	s0,sp,128
 358:	04090103          	lb	sp,64(s2)
 35c:	0100                	addi	s0,sp,128
 35e:	04090103          	lb	sp,64(s2)
 362:	0100                	addi	s0,sp,128
 364:	04090103          	lb	sp,64(s2)
 368:	0100                	addi	s0,sp,128
 36a:	04090103          	lb	sp,64(s2)
 36e:	0100                	addi	s0,sp,128
 370:	04090103          	lb	sp,64(s2)
 374:	0100                	addi	s0,sp,128
 376:	04090103          	lb	sp,64(s2)
 37a:	0100                	addi	s0,sp,128
 37c:	04090103          	lb	sp,64(s2)
 380:	0100                	addi	s0,sp,128
 382:	04090103          	lb	sp,64(s2)
 386:	0100                	addi	s0,sp,128
 388:	04090103          	lb	sp,64(s2)
 38c:	0100                	addi	s0,sp,128
 38e:	04090103          	lb	sp,64(s2)
 392:	0100                	addi	s0,sp,128
 394:	04090103          	lb	sp,64(s2)
 398:	0100                	addi	s0,sp,128
 39a:	04090103          	lb	sp,64(s2)
 39e:	0100                	addi	s0,sp,128
 3a0:	04090103          	lb	sp,64(s2)
 3a4:	0100                	addi	s0,sp,128
 3a6:	04090103          	lb	sp,64(s2)
 3aa:	0100                	addi	s0,sp,128
 3ac:	04090103          	lb	sp,64(s2)
 3b0:	0100                	addi	s0,sp,128
 3b2:	04090103          	lb	sp,64(s2)
 3b6:	0100                	addi	s0,sp,128
 3b8:	04090103          	lb	sp,64(s2)
 3bc:	0100                	addi	s0,sp,128
 3be:	04090103          	lb	sp,64(s2)
 3c2:	0100                	addi	s0,sp,128
 3c4:	04090103          	lb	sp,64(s2)
 3c8:	0100                	addi	s0,sp,128
 3ca:	04090103          	lb	sp,64(s2)
 3ce:	0100                	addi	s0,sp,128
 3d0:	04090103          	lb	sp,64(s2)
 3d4:	0100                	addi	s0,sp,128
 3d6:	04090103          	lb	sp,64(s2)
 3da:	0100                	addi	s0,sp,128
 3dc:	04090103          	lb	sp,64(s2)
 3e0:	0100                	addi	s0,sp,128
 3e2:	04090103          	lb	sp,64(s2)
 3e6:	0100                	addi	s0,sp,128
 3e8:	04090103          	lb	sp,64(s2)
 3ec:	0100                	addi	s0,sp,128
 3ee:	04090103          	lb	sp,64(s2)
 3f2:	0100                	addi	s0,sp,128
 3f4:	04090103          	lb	sp,64(s2)
 3f8:	0100                	addi	s0,sp,128
 3fa:	04090103          	lb	sp,64(s2)
 3fe:	0100                	addi	s0,sp,128
 400:	04090103          	lb	sp,64(s2)
 404:	0100                	addi	s0,sp,128
 406:	04090103          	lb	sp,64(s2)
 40a:	0100                	addi	s0,sp,128
 40c:	04090303          	lb	t1,64(s2)
 410:	0100                	addi	s0,sp,128
 412:	08090603          	lb	a2,128(s2)
 416:	0100                	addi	s0,sp,128
 418:	08090103          	lb	sp,128(s2)
 41c:	0100                	addi	s0,sp,128
 41e:	08090203          	lb	tp,128(s2)
 422:	0100                	addi	s0,sp,128
 424:	04090303          	lb	t1,64(s2)
 428:	0100                	addi	s0,sp,128
 42a:	04090103          	lb	sp,64(s2)
 42e:	0100                	addi	s0,sp,128
 430:	04090103          	lb	sp,64(s2)
 434:	0100                	addi	s0,sp,128
 436:	04090603          	lb	a2,64(s2)
 43a:	0100                	addi	s0,sp,128
 43c:	08090103          	lb	sp,128(s2)
 440:	0100                	addi	s0,sp,128
 442:	08090103          	lb	sp,128(s2)
 446:	0100                	addi	s0,sp,128
 448:	04090203          	lb	tp,64(s2)
 44c:	0100                	addi	s0,sp,128
 44e:	04090303          	lb	t1,64(s2)
 452:	0100                	addi	s0,sp,128
 454:	04090103          	lb	sp,64(s2)
 458:	0100                	addi	s0,sp,128
 45a:	04090103          	lb	sp,64(s2)
 45e:	0100                	addi	s0,sp,128
 460:	04090103          	lb	sp,64(s2)
 464:	0100                	addi	s0,sp,128
 466:	04090203          	lb	tp,64(s2)
 46a:	0100                	addi	s0,sp,128
 46c:	04090703          	lb	a4,64(s2)
 470:	0100                	addi	s0,sp,128
 472:	04090403          	lb	s0,64(s2)
 476:	0100                	addi	s0,sp,128
 478:	04090103          	lb	sp,64(s2)
 47c:	0100                	addi	s0,sp,128
 47e:	04090103          	lb	sp,64(s2)
 482:	0100                	addi	s0,sp,128
 484:	0409                	addi	s0,s0,2
 486:	0000                	unimp
 488:	0101                	addi	sp,sp,0
 48a:	0500                	addi	s0,sp,640
 48c:	0002                	c.slli64	zero
 48e:	0000                	unimp
 490:	0300                	addi	s0,sp,384
 492:	00e2                	slli	ra,ra,0x18
 494:	0301                	addi	t1,t1,0
 496:	0902                	c.slli64	s2
 498:	007c                	addi	a5,sp,12
 49a:	0301                	addi	t1,t1,0
 49c:	00040903          	lb	s2,0(s0) # 19000 <_min_stack+0x18000>
 4a0:	0301                	addi	t1,t1,0
 4a2:	0904                	addi	s1,sp,144
 4a4:	0004                	0x4
 4a6:	0301                	addi	t1,t1,0
 4a8:	0904                	addi	s1,sp,144
 4aa:	0004                	0x4
 4ac:	0901                	addi	s2,s2,0
 4ae:	0004                	0x4
 4b0:	0100                	addi	s0,sp,128
 4b2:	01              	Address 0x00000000000004b2 is out of bounds.


Disassembly of section .debug_str:

00000000 <.debug_str>:
  .endr
   0:	645f 6f73 685f      	0x685f6f73645f
   6:	6e61                	lui	t3,0x18
   8:	6c64                	flw	fs1,92(s0)
   a:	0065                	c.nop	25
   c:	6f6c                	flw	fa1,92(a4)
   e:	0073706f          	j	37814 <_min_stack+0x36814>
  12:	735f 7a69 0065      	0x657a69735f
  18:	725f 6e61 3464      	0x34646e61725f
  1e:	0038                	addi	a4,sp,8
  20:	655f 656d 6772      	0x6772656d655f
  26:	6e65                	lui	t3,0x19
  28:	5f007963          	bgeu	zero,a6,61a <_sidata+0x252>
  2c:	755f 6e69 3874      	0x38746e69755f
  32:	745f 3100 5f30      	0x5f303100745f
  38:	626d                	lui	tp,0x1b
  3a:	74617473          	csrrci	s0,0x746,2
  3e:	5f65                	li	t5,-7
  40:	0074                	addi	a3,sp,12
  42:	645f 7461 0061      	0x617461645f
  48:	775f 7263 6f74      	0x6f747263775f
  4e:	626d                	lui	tp,0x1b
  50:	735f 6174 6574      	0x65746174735f
  56:	5f00                	lw	s0,56(a4)
  58:	72736377          	0x72736377
  5c:	6f74                	flw	fa3,92(a4)
  5e:	626d                	lui	tp,0x1b
  60:	74735f73          	csrrwi	t5,0x747,6
  64:	7461                	lui	s0,0xffff8
  66:	0065                	c.nop	25
  68:	7270                	flw	fa2,100(a2)
  6a:	6e69                	lui	t3,0x1a
  6c:	6674                	flw	fa3,76(a2)
  6e:	6c00                	flw	fs0,24(s0)
  70:	20676e6f          	jal	t3,76276 <_min_stack+0x75276>
  74:	6f6c                	flw	fa1,92(a4)
  76:	676e                	flw	fa4,216(sp)
  78:	7520                	flw	fs0,104(a0)
  7a:	736e                	flw	ft6,248(sp)
  nop
  7c:	6769                	lui	a4,0x1a
  7e:	656e                	flw	fa0,216(sp)
  jal x0, reset_handler
  80:	2064                	fld	fs1,192(s0)
  82:	6e69                	lui	t3,0x1a
  jal x0, default_exc_handler
  84:	0074                	addi	a3,sp,12
  86:	6c5f 6662 6973      	0x697366626c5f
  jal x0, default_exc_handler
  8c:	657a                	flw	fa0,156(sp)
  8e:	5f00                	lw	s0,56(a4)
  mv  x1, x0
  90:	696e                	flw	fs2,216(sp)
  92:	0073626f          	jal	tp,36898 <_min_stack+0x35898>
  mv  x2, x1
  96:	6d5f 7262 6f74      	0x6f7472626d5f
  mv  x4, x1
  9c:	735f6377          	0x735f6377
  mv  x5, x1
  a0:	6174                	flw	fa3,68(a0)
  a2:	6574                	flw	fa3,76(a0)
  mv  x6, x1
  a4:	5f00                	lw	s0,56(a4)
  a6:	6f746377          	0x6f746377
  mv  x7, x1
  aa:	626d                	lui	tp,0x1b
  mv  x8, x1
  ac:	735f 6174 6574      	0x65746174735f
  mv  x9, x1
  b2:	5f00                	lw	s0,56(a4)
  mv x10, x1
  b4:	745f 5f6d 6573      	0x65735f6d745f
  mv x11, x1
  ba:	6f6c0063          	beq	s8,s6,79a <_sidata+0x3d2>
  mv x12, x1
  be:	676e                	flw	fa4,216(sp)
  mv x13, x1
  c0:	6c20                	flw	fs0,88(s0)
  c2:	20676e6f          	jal	t3,762c8 <_min_stack+0x752c8>
  mv x14, x1
  c6:	6e69                	lui	t3,0x1a
  mv x15, x1
  c8:	0074                	addi	a3,sp,12
  ca:	755f 7562 0066      	0x667562755f
  mv x17, x1
  d0:	625f 7361 0065      	0x657361625f
  mv x18, x1
  d6:	5a5f 5f36 7277      	0x72775f365a5f
  mv x20, x1
  dc:	7469                	lui	s0,0xffffa
  de:	6c65                	lui	s8,0x19
  mv x21, x1
  e0:	6850                	flw	fa2,20(s0)
  e2:	006c                	addi	a1,sp,12
  mv x22, x1
  e4:	5f5f 6d74 685f      	0x685f6d745f5f
  mv x23, x1
  ea:	0072756f          	jal	a0,278f0 <_min_stack+0x268f0>
  mv x24, x1
  ee:	5f5f 6673 5f00      	0x5f0066735f5f
  mv x26, x1
  f4:	655f6e6f          	jal	t3,f6f48 <_min_stack+0xf5f48>
  mv x27, x1
  f8:	6978                	flw	fa4,84(a0)
  fa:	5f74                	lw	a3,124(a4)
  mv x28, x1
  fc:	7261                	lui	tp,0xffff8
  fe:	75007367          	0x75007367
  mv x29, x1
 102:	5f636573          	csrrsi	a0,0x5f6,6
  mv x30, x1
 106:	6c637963          	bgeu	t1,t1,7d8 <_sidata+0x410>
  mv x31, x1
 10a:	7365                	lui	t1,0xffff9
  la   x2, _stack_start
 10c:	5f00                	lw	s0,56(a4)
 10e:	6b6f6f63          	bltu	t5,s6,7cc <_sidata+0x404>
 112:	6569                	lui	a0,0x1a
  la x26, _bss_start
 114:	5f00                	lw	s0,56(a4)
 116:	735f 6c67 6575      	0x65756c67735f
  la x27, _bss_end
 11c:	5f00                	lw	s0,56(a4)
 11e:	6c66                	flw	fs8,88(sp)
 120:	6761                	lui	a4,0x18
 122:	695f0073          	0x695f0073
  bge x26, x27, zero_loop_end
 126:	78635f73          	csrrwi	t5,0x786,6
  sw x0, 0(x26)
 12a:	0061                	c.nop	24
  addi x26, x26, 4
 12c:	735f 6474 6e69      	0x6e696474735f
  ble x26, x27, zero_loop
 132:	5f00                	lw	s0,56(a4)
  la x26, _sdata
 134:	6c62                	flw	fs8,24(sp)
 136:	7a69736b          	0x7a69736b
 13a:	0065                	c.nop	25
  la x27, _edata
 13c:	6564                	flw	fs1,76(a0)
 13e:	616c                	flw	fa1,68(a0)
 140:	5f79                	li	t5,-2
 142:	6f6c                	flw	fa1,92(a4)
  la x25, _sidata
 144:	695f706f          	j	f7fd8 <_min_stack+0xf6fd8>
  bge x26, x27, init_loop_end
 148:	6562                	flw	fa0,24(sp)
 14a:	0078                	addi	a4,sp,12
  lw x1, 0(x25)
 14c:	635f 7476 7562      	0x75627476635f
  sw x1, 0(x26)
 152:	0066                	c.slli	zero,0x19
  addi x26, x26, 4  
 154:	6f5f 6666 6573      	0x657366666f5f
  addi x25, x25, 4
 15a:	0074                	addi	a3,sp,12
  ble x26, x27, init_loop
 15c:	6874                	flw	fa3,84(s0)
 15e:	7369                	lui	t1,0xffffa
  call    __libc_init_array
 160:	5f00                	lw	s0,56(a4)
 162:	626d                	lui	tp,0x1b
  addi x10, x0, 0
 164:	6f747273          	csrrci	tp,0x6f7,8
  addi x11, x0, 0
 168:	5f736377          	0x5f736377
  jal x1, main
 16c:	74617473          	csrrci	s0,0x746,2
 170:	0065                	c.nop	25
 172:	6d5f 7262 656c      	0x656c72626d5f
 178:	5f6e                	lw	t5,248(sp)
 17a:	74617473          	csrrci	s0,0x746,2
 17e:	0065                	c.nop	25
 180:	665f 616e 6772      	0x6772616e665f
 186:	665f0073          	0x665f0073
 18a:	736e                	flw	ft6,248(sp)
 18c:	5f00                	lw	s0,56(a4)
 18e:	755f 6e69 3374      	0x33746e69755f
 194:	5f32                	lw	t5,44(sp)
 196:	0074                	addi	a3,sp,12
 198:	735f 6769 006e      	0x6e6769735f
 19e:	665f 6f6c 6b63      	0x6b636f6c665f
 1a4:	745f 5f00 7473      	0x74735f00745f
 1aa:	6564                	flw	fs1,76(a0)
 1ac:	7272                	flw	ft4,60(sp)
 1ae:	5f00                	lw	s0,56(a4)
 1b0:	6942                	flw	fs2,16(sp)
 1b2:	746e6967          	0x746e6967
 1b6:	5f00                	lw	s0,56(a4)
 1b8:	6d6d6167          	0x6d6d6167
 1bc:	5f61                	li	t5,-8
 1be:	6e676973          	csrrsi	s2,0x6e6,14
 1c2:	006d6167          	0x6d6167
 1c6:	725f 6165 0064      	0x646165725f
 1cc:	725f 7365 6c75      	0x6c757365725f
 1d2:	5f74                	lw	a3,124(a4)
 1d4:	5f5f006b          	0x5f5f006b
 1d8:	6d74                	flw	fa3,92(a0)
 1da:	5f00                	lw	s0,56(a4)
 1dc:	775f 6863 0062      	0x626863775f
 1e2:	735f 6474 756f      	0x756f6474735f
 1e8:	0074                	addi	a3,sp,12
 1ea:	635f 7476 656c      	0x656c7476635f
 1f0:	006e                	c.slli	zero,0x1b
 1f2:	665f 6c69 0065      	0x656c69665f
 1f8:	735f 6973 657a      	0x657a6973735f
    *dbg = *ptr;
 1fe:	745f 6c00 6465      	0x64656c00745f
   while(*ptr != 0)
 204:	632e                	flw	ft6,200(sp)
 206:	5f00                	lw	s0,56(a4)
 208:	5f676973          	csrrsi	s2,0x5f6,14
    *dbg = *ptr;
 20c:	7566                	flw	fa0,120(sp)
 20e:	636e                	flw	ft6,216(sp)
    ptr++;
 210:	7300                	flw	fs0,32(a4)
 212:	6f68                	flw	fa0,92(a4)
   while(*ptr != 0)
 214:	7472                	flw	fs0,60(sp)
 216:	7520                	flw	fs0,104(a0)
}
 218:	736e                	flw	ft6,248(sp)
 21a:	6769                	lui	a4,0x1a
 21c:	656e                	flw	fa0,216(sp)
 21e:	2064                	fld	fs1,192(s0)
{
 220:	6e69                	lui	t3,0x1a
 222:	0074                	addi	a3,sp,12
    _write(0, reinterpret_cast<uint8_t*>(str), sizeof(str));
 224:	615f 6574 6978      	0x69786574615f
 22a:	3074                	fld	fa3,224(s0)
 22c:	5f00                	lw	s0,56(a4)
 22e:	6e676973          	csrrsi	s2,0x6e6,14
int main(int argc, char **argv) {
 232:	6c61                	lui	s8,0x18
 234:	625f 6675 5f00      	0x5f006675625f
 23a:	7361                	lui	t1,0xffff8
 23c:	6d697463          	bgeu	s2,s6,904 <_sidata+0x53c>
 240:	5f65                	li	t5,-7
 242:	7562                	flw	fa0,56(sp)
 244:	0066                	c.slli	zero,0x19
 246:	725f 7365 6c75      	0x6c757365725f
 24c:	0074                	addi	a3,sp,12
 24e:	5f5f 6377 0068      	0x6863775f5f
  *var = 0xffffffff; 
 254:	6f74                	flw	fa3,92(a4)
 256:	6f74                	flw	fa3,92(a4)
 258:	7700                	flw	fs0,40(a4)
 25a:	6e69                	lui	t3,0x1a
 25c:	5f74                	lw	a3,124(a4)
 25e:	0074                	addi	a3,sp,12
  printf("Giorno core running\n");    
 260:	6c5f 636f 006b      	0x6b636f6c5f
 266:	665f 616c 7367      	0x7367616c665f
 26c:	0032                	c.slli	zero,0xc
 26e:	5f5f 6f6c 6163      	0x61636f6c5f5f
  uint8_t cnt = 0;
 274:	656c                	flw	fa1,76(a0)
 276:	745f 6400 6365      	0x63656400745f
        printf("Applying value from class method\n");       
 27c:	746c                	flw	fa1,108(s0)
 27e:	7079                	c.lui	zero,0xffffe
 280:	2865                	jal	338 <__DTOR_END__+0x28>
 282:	756e                	flw	fa0,248(sp)
        *var = tata.run(4);
 284:	6c6c                	flw	fa1,92(s0)
 286:	7470                	flw	fa2,108(s0)
        printf("Applying array value\n");
 288:	2972                	fld	fs2,280(sp)
 28a:	5f00                	lw	s0,56(a4)
 28c:	74697277          	0x74697277
        *var = toto[cnt&3];
 290:	0065                	c.nop	25
 292:	5f5f 6d74 795f      	0x795f6d745f5f
  );
 298:	6165                	addi	sp,sp,112
 29a:	0072                	c.slli	zero,0x1c
 29c:	7375                	lui	t1,0xffffd
 29e:	656c                	flw	fa1,76(a0)
 2a0:	7065                	c.lui	zero,0xffff9
 2a2:	695f 6562 0078      	0x786562695f
 2a8:	6e5f 616d 6c6c      	0x6c6c616d6e5f
 2ae:	7400636f          	jal	t1,69ee <_min_stack+0x59ee>
 2b2:	7469                	lui	s0,0xffffa
    if (cnt & 0x4)
 2b4:	0069                	c.nop	26
 2b6:	20554e47          	fmsub.s	ft8,fa0,ft5,ft4,rmm
 2ba:	312b2b43          	fmadd.s	fs6,fs6,fs2,ft6,rdn
        printf("Applying array value\n");
 2be:	2034                	fld	fa3,64(s0)
 2c0:	2e39                	jal	5de <_sidata+0x216>
 2c2:	2e32                	fld	ft8,264(sp)
        *var = toto[cnt&3];
 2c4:	2030                	fld	fa2,64(s0)
 2c6:	6d2d                	lui	s10,0xb
 2c8:	7261                	lui	tp,0xffff8
 2ca:	723d6863          	bltu	s10,gp,9fa <_sidata+0x632>
 2ce:	3376                	fld	ft6,376(sp)
 2d0:	6932                	flw	fs2,12(sp)
 2d2:	2d20                	fld	fs0,88(a0)
 2d4:	616d                	addi	sp,sp,240
 2d6:	6962                	flw	fs2,24(sp)
    cnt++;
 2d8:	693d                	lui	s2,0xf
 2da:	706c                	flw	fa1,100(s0)
 2dc:	2d203233          	0x2d203233
    usleep(1); // 1000 ms
 2e0:	636d                	lui	t1,0x1b
 2e2:	6f6d                	lui	t5,0x1b
        printf("Applying value from class method\n");       
 2e4:	6564                	flw	fs1,76(a0)
 2e6:	3d6c                	fld	fa1,248(a0)
 2e8:	656d                	lui	a0,0x1b
 2ea:	6164                	flw	fs1,68(a0)
        val = (val << n) | (val >> (32 - n) );
 2ec:	796e                	flw	fs2,248(sp)
 2ee:	2d20                	fld	fs0,88(a0)
 2f0:	746d                	lui	s0,0xffffb
 2f2:	6e75                	lui	t3,0x1d
 2f4:	3d65                	jal	1ac <__libc_init_array+0x3c>
 2f6:	6f72                	flw	ft10,28(sp)
        *var = tata.run(4);
 2f8:	74656b63          	bltu	a0,t1,a4e <_sidata+0x686>
 2fc:	2d20                	fld	fs0,88(a0)
 2fe:	4f2d2067          	0x4f2d2067
 302:	662d2073          	csrs	0x662,s10
 306:	6976                	flw	fs2,92(sp)
 308:	69626973          	csrrsi	s2,0x696,4
 30c:	696c                	flw	fa1,84(a0)
 30e:	7974                	flw	fa3,116(a0)
 310:	683d                	lui	a6,0xf
 312:	6469                	lui	s0,0x1a
 314:	6564                	flw	fs1,76(a0)
 316:	206e                	fld	ft0,216(sp)
 318:	662d                	lui	a2,0xb
 31a:	7566                	flw	fa0,120(sp)
 31c:	636e                	flw	ft6,216(sp)
 31e:	6974                	flw	fa3,84(a0)
 320:	732d6e6f          	jal	t3,d6a52 <_min_stack+0xd5a52>
 324:	6365                	lui	t1,0x19
 326:	6974                	flw	fa3,84(a0)
 328:	20736e6f          	jal	t3,36d2e <_min_stack+0x35d2e>
 32c:	662d                	lui	a2,0xb
 32e:	6164                	flw	fs1,68(a0)
 330:	6174                	flw	fa3,68(a0)
 332:	732d                	lui	t1,0xfffeb
 334:	6365                	lui	t1,0x19
 336:	6974                	flw	fa3,84(a0)
 338:	00736e6f          	jal	t3,36b3e <_min_stack+0x35b3e>
 33c:	6f6c                	flw	fa1,92(a4)
 33e:	676e                	flw	fa4,216(sp)
 340:	6420                	flw	fs0,72(s0)
 342:	6c62756f          	jal	a0,27a08 <_min_stack+0x26a08>
 346:	0065                	c.nop	25
 348:	6d6f682f          	0x6d6f682f
 34c:	2f65                	jal	b04 <_sidata+0x73c>
 34e:	6170                	flw	fa2,68(a0)
 350:	6f6e6167          	0x6f6e6167
 354:	2f7a                	fld	ft10,408(sp)
 356:	4f42                	lw	t5,16(sp)
 358:	4c55                	li	s8,21
 35a:	612f544f          	fnmadd.s	fs0,ft10,fs2,fa2,unknown
 35e:	76617267          	0x76617267
 362:	6369                	lui	t1,0x1a
 364:	5249462f          	0x5249462f
 368:	574d                	li	a4,-13
 36a:	5241                	li	tp,-16
 36c:	0045                	c.nop	17
 36e:	5a5f 344e 6974      	0x6974344e5a5f
 374:	6974                	flw	fa3,84(a0)
 376:	6e757233          	0x6e757233
 37a:	6d45                	lui	s10,0x11
 37c:	5f00                	lw	s0,56(a4)
 37e:	656e                	flw	fa0,216(sp)
 380:	7478                	flw	fa4,108(s0)
 382:	0066                	c.slli	zero,0x19
 384:	5f5f 6d74 6d5f      	0x6d5f6d745f5f
 38a:	5f006e6f          	jal	t3,697a <_min_stack+0x597a>
 38e:	7461                	lui	s0,0xffff8
 390:	7865                	lui	a6,0xffff9
 392:	7469                	lui	s0,0xffffa
 394:	5f00                	lw	s0,56(a4)
 396:	735f 6964 6964      	0x69646964735f
 39c:	696e                	flw	fs2,216(sp)
 39e:	0074                	addi	a3,sp,12
 3a0:	6f5f 6666 745f      	0x745f66666f5f
 3a6:	7500                	flw	fs0,40(a0)
 3a8:	00636573          	csrrsi	a0,0x6,6
 3ac:	665f 6572 6c65      	0x6c656572665f
 3b2:	7369                	lui	t1,0xffffa
 3b4:	0074                	addi	a3,sp,12
 3b6:	4c5f 434f 5f4b      	0x5f4b434f4c5f
 3bc:	4552                	lw	a0,20(sp)
 3be:	53525543          	fmadd.d	fa0,ft4,fs5,fa0,unknown
 3c2:	5649                	li	a2,-14
 3c4:	5f45                	li	t5,-15
 3c6:	0054                	addi	a3,sp,4
 3c8:	6e75                	lui	t3,0x1d
 3ca:	6e676973          	csrrsi	s2,0x6e6,14
 3ce:	6465                	lui	s0,0x19
 3d0:	6320                	flw	fs0,64(a4)
 3d2:	6168                	flw	fa0,68(a0)
 3d4:	0072                	c.slli	zero,0x1c
 3d6:	6e5f 7765 5f00      	0x5f0077656e5f
 3dc:	5f68                	lw	a0,124(a4)
 3de:	7265                	lui	tp,0xffff9
 3e0:	6e72                	flw	ft8,28(sp)
 3e2:	6873006f          	j	31268 <_min_stack+0x30268>
 3e6:	2074726f          	jal	tp,47dec <_min_stack+0x46dec>
 3ea:	6e69                	lui	t3,0x1a
 3ec:	0074                	addi	a3,sp,12
 3ee:	5f5f 6d74 795f      	0x795f6d745f5f
 3f4:	6164                	flw	fs1,68(a0)
 3f6:	0079                	c.nop	30
 3f8:	5f5f 6273 6675      	0x667562735f5f
 3fe:	5f00                	lw	s0,56(a4)
 400:	6f69                	lui	t5,0x1a
 402:	7362                	flw	ft6,56(sp)
 404:	5f00                	lw	s0,56(a4)
 406:	365a                	fld	fa2,432(sp)
 408:	7270                	flw	fa2,100(a2)
 40a:	6e69                	lui	t3,0x1a
 40c:	6674                	flw	fa3,76(a2)
 40e:	6350                	flw	fa2,4(a4)
 410:	5f00                	lw	s0,56(a4)
 412:	465f 4c49 0045      	0x454c49465f
 418:	5f5f 4673 4c49      	0x4c4946735f5f
 41e:	0045                	c.nop	17
 420:	6d5f 7362 6174      	0x617473626d5f
 426:	6574                	flw	fa3,76(a0)
 428:	5f00                	lw	s0,56(a4)
 42a:	6172                	flw	ft2,28(sp)
 42c:	646e                	flw	fs0,216(sp)
 42e:	6e5f 7865 0074      	0x7478656e5f
 434:	6d5f 6c62 6e65      	0x6e656c626d5f
 43a:	735f 6174 6574      	0x65746174735f
 440:	5f00                	lw	s0,56(a4)
 442:	6e69                	lui	t3,0x1a
 444:	695f0063          	beq	t5,s5,ac4 <_sidata+0x6fc>
 448:	646e                	flw	fs0,216(sp)
 44a:	5f00                	lw	s0,56(a4)
 44c:	6f6c                	flw	fa1,92(a4)
 44e:	656c6163          	bltu	s8,s6,a90 <_sidata+0x6c8>
 452:	5f00                	lw	s0,56(a4)
 454:	635f 656c 6e61      	0x6e61656c635f
 45a:	7075                	c.lui	zero,0xffffd
 45c:	5f00                	lw	s0,56(a4)
 45e:	6e75                	lui	t3,0x1d
 460:	63657073          	csrci	0x636,10
 464:	6669                	lui	a2,0x1a
 466:	6569                	lui	a0,0x1a
 468:	5f64                	lw	s1,124(a4)
 46a:	6f6c                	flw	fa1,92(a4)
 46c:	656c6163          	bltu	s8,s6,aae <_sidata+0x6e6>
 470:	695f 666e 006f      	0x6f666e695f
 476:	6d5f 7861 6477      	0x647778616d5f
 47c:	725f0073          	0x725f0073
 480:	6565                	lui	a0,0x19
 482:	746e                	flw	fs0,248(sp)
 484:	5f00                	lw	s0,56(a4)
 486:	64656573          	csrrsi	a0,0x646,10
 48a:	5f00                	lw	s0,56(a4)
 48c:	635f 756f 746e      	0x746e756f635f
 492:	5f00                	lw	s0,56(a4)
 494:	6b656573          	csrrsi	a0,0x6b6,10
 498:	5f00                	lw	s0,56(a4)
 49a:	7066                	flw	ft0,120(sp)
 49c:	745f736f          	jal	t1,f83e0 <_min_stack+0xf73e0>
 4a0:	5f00                	lw	s0,56(a4)
 4a2:	745f 5f6d 696d      	0x696d5f6d745f
 4a8:	006e                	c.slli	zero,0x1b
 4aa:	5f5f 6e69 3374      	0x33746e695f5f
 4b0:	5f32                	lw	t5,44(sp)
 4b2:	0074                	addi	a3,sp,12
 4b4:	6d5f 6c75 0074      	0x746c756d5f
 4ba:	735f 7274 6f74      	0x6f747274735f
 4c0:	616c5f6b          	0x616c5f6b
 4c4:	5f007473          	csrrci	s0,0x5f0,0
 4c8:	765f 6c61 6575      	0x65756c61765f
 4ce:	5f00                	lw	s0,56(a4)
 4d0:	6e66                	flw	ft8,88(sp)
 4d2:	7974                	flw	fa3,116(a0)
 4d4:	6570                	flw	fa2,76(a0)
 4d6:	615f0073          	0x615f0073
 4da:	6464                	flw	fs1,76(s0)
 4dc:	5f00                	lw	s0,56(a4)
 4de:	555f 6f4c 676e      	0x676e6f4c555f
 4e4:	5f00                	lw	s0,56(a4)
 4e6:	64746567          	0x64746567
 4ea:	7461                	lui	s0,0xffff8
 4ec:	5f65                	li	t5,-7
 4ee:	7265                	lui	tp,0xffff9
 4f0:	0072                	c.slli	zero,0x1c
 4f2:	675f 6f6c 6162      	0x61626f6c675f
 4f8:	5f6c                	lw	a1,124(a4)
 4fa:	6d69                	lui	s10,0x1a
 4fc:	7570                	flw	fa2,108(a0)
 4fe:	6572                	flw	fa0,28(sp)
 500:	705f 7274 6100      	0x61007274705f
 506:	6772                	flw	fa4,28(sp)
 508:	0076                	c.slli	zero,0x1d
 50a:	755f 756e 6573      	0x6573756e755f
 510:	5f64                	lw	s1,124(a4)
 512:	6172                	flw	ft2,28(sp)
 514:	646e                	flw	fs0,216(sp)
 516:	5f00                	lw	s0,56(a4)
 518:	00736477          	0x736477
 51c:	5f5f 6d74 775f      	0x775f6d745f5f
 522:	6164                	flw	fs1,68(a0)
 524:	0079                	c.nop	30
 526:	675f 756c 0065      	0x65756c675f
 52c:	6c5f 3436 5f61      	0x5f6134366c5f
 532:	7562                	flw	fa0,56(sp)
 534:	0066                	c.slli	zero,0x19
 536:	6d5f 7462 776f      	0x776f74626d5f
 53c:	74735f63          	bge	t1,t2,c9a <_sidata+0x8d2>
 540:	7461                	lui	s0,0xffff8
 542:	0065                	c.nop	25
 544:	6174                	flw	fa3,68(a0)
 546:	6174                	flw	fa3,68(a0)
 548:	5f00                	lw	s0,56(a4)
 54a:	626e                	flw	ft4,216(sp)
 54c:	6675                	lui	a2,0x1d
 54e:	5f00                	lw	s0,56(a4)
 550:	6e75                	lui	t3,0x1d
 552:	7375                	lui	t1,0xffffd
 554:	6465                	lui	s0,0x19
 556:	6100                	flw	fs0,0(a0)
 558:	6772                	flw	fa4,28(sp)
 55a:	5f5f0063          	beq	t5,s5,b3a <_sidata+0x772>
 55e:	6d74                	flw	fa3,92(a0)
 560:	695f 6473 7473      	0x74736473695f
 566:	5f00                	lw	s0,56(a4)
 568:	6f6c                	flw	fa1,92(a4)
 56a:	746c6163          	bltu	s8,t1,cac <_sidata+0x8e4>
 56e:	6d69                	lui	s10,0x1a
 570:	5f65                	li	t5,-7
 572:	7562                	flw	fa0,56(sp)
 574:	0066                	c.slli	zero,0x19
 576:	635f 6f6c 6573      	0x65736f6c635f
 57c:	5f00                	lw	s0,56(a4)
 57e:	3472                	fld	fs0,312(sp)
 580:	0038                	addi	a4,sp,8
 582:	7375                	lui	t1,0xffffd
 584:	656c                	flw	fa1,76(a0)
 586:	7065                	c.lui	zero,0xffff9
 588:	5f00                	lw	s0,56(a4)
 58a:	3570                	fld	fa2,232(a0)
 58c:	616d0073          	0x616d0073
 590:	6e69                	lui	t3,0x1a
 592:	5f00                	lw	s0,56(a4)
 594:	745f 5f6d 646d      	0x646d5f6d745f
 59a:	7961                	lui	s2,0xffff8
 59c:	6300                	flw	fs0,0(a4)
 59e:	7472                	flw	fs0,60(sp)
 5a0:	2e30                	fld	fa2,88(a2)
 5a2:	4e470053          	0x4e470053
 5a6:	2055                	jal	64a <_sidata+0x282>
 5a8:	5341                	li	t1,-16
 5aa:	3220                	fld	fs0,96(a2)
 5ac:	332e                	fld	ft6,232(sp)
 5ae:	0032                	c.slli	zero,0xc

Disassembly of section .comment:

00000000 <.comment>:
  .endr
   0:	3a434347          	fmsub.d	ft6,ft6,ft4,ft7,rmm
   4:	2820                	fld	fs0,80(s0)
   6:	29554e47          	fmsub.s	ft8,fa0,fs5,ft5,rmm
   a:	3920                	fld	fs0,112(a0)
   c:	322e                	fld	ft4,232(sp)
   e:	302e                	fld	ft0,232(sp)
	...

Disassembly of section .riscv.attributes:

00000000 <.riscv.attributes>:
   0:	1b41                	addi	s6,s6,-16
   2:	0000                	unimp
   4:	7200                	flw	fs0,32(a2)
   6:	7369                	lui	t1,0xffffa
   8:	01007663          	bgeu	zero,a6,14 <__DYNAMIC+0x14>
   c:	0011                	c.nop	4
   e:	0000                	unimp
  10:	1004                	addi	s1,sp,32
  12:	7205                	lui	tp,0xfffe1
  14:	3376                	fld	ft6,376(sp)
  16:	6932                	flw	fs2,12(sp)
  18:	7032                	flw	ft0,44(sp)
  1a:	0030                	addi	a2,sp,8
